;******************************************************************************
;* TI ARM C/C++ Codegen                                      Unix v18.1.3.LTS *
;* Date/Time created: Thu Sep 20 01:12:45 2018                                *
;******************************************************************************
	.compiler_opts --abi=eabi --arm_vmrs_si_workaround=off --code_state=16 --diag_wrap=off --embedded_constants=on --endian=little --float_support=FPv4SPD16 --hll_source=on --object_format=elf --silicon_version=7M4 --symdebug:dwarf --symdebug:dwarf_version=3 --unaligned_access=on 
	.thumb

$C$DW$CU	.dwtag  DW_TAG_compile_unit
	.dwattr $C$DW$CU, DW_AT_name("../Tivaware_Dep/third_party/FreeRTOS/Source/tasks.c")
	.dwattr $C$DW$CU, DW_AT_producer("TI TI ARM C/C++ Codegen Unix v18.1.3.LTS Copyright (c) 1996-2017 Texas Instruments Incorporated")
	.dwattr $C$DW$CU, DW_AT_TI_version(0x01)
	.dwattr $C$DW$CU, DW_AT_comp_dir("/home/kd/Multimeter_TivaC/Debug")
	.global	pxCurrentTCB
	.data
	.align	4
	.elfsym	pxCurrentTCB,SYM_SIZE(4)
pxCurrentTCB:
	.bits	0,32			; pxCurrentTCB @ 0

$C$DW$1	.dwtag  DW_TAG_variable
	.dwattr $C$DW$1, DW_AT_name("pxCurrentTCB")
	.dwattr $C$DW$1, DW_AT_TI_symbol_name("pxCurrentTCB")
	.dwattr $C$DW$1, DW_AT_location[DW_OP_addr pxCurrentTCB]
	.dwattr $C$DW$1, DW_AT_type(*$C$DW$T$341)
	.dwattr $C$DW$1, DW_AT_external
	.dwattr $C$DW$1, DW_AT_decl_file("../Tivaware_Dep/third_party/FreeRTOS/Source/tasks.c")
	.dwattr $C$DW$1, DW_AT_decl_line(0x15f)
	.dwattr $C$DW$1, DW_AT_decl_column(0x22)

pxReadyTasksLists:	.usect	".bss:pxReadyTasksLists",320,4
$C$DW$2	.dwtag  DW_TAG_variable
	.dwattr $C$DW$2, DW_AT_name("pxReadyTasksLists")
	.dwattr $C$DW$2, DW_AT_TI_symbol_name("pxReadyTasksLists")
	.dwattr $C$DW$2, DW_AT_type(*$C$DW$T$344)
	.dwattr $C$DW$2, DW_AT_location[DW_OP_addr pxReadyTasksLists]
	.dwattr $C$DW$2, DW_AT_decl_file("../Tivaware_Dep/third_party/FreeRTOS/Source/tasks.c")
	.dwattr $C$DW$2, DW_AT_decl_line(0x165)
	.dwattr $C$DW$2, DW_AT_decl_column(0x1f)

xDelayedTaskList1:	.usect	".bss:xDelayedTaskList1",20,4
$C$DW$3	.dwtag  DW_TAG_variable
	.dwattr $C$DW$3, DW_AT_name("xDelayedTaskList1")
	.dwattr $C$DW$3, DW_AT_TI_symbol_name("xDelayedTaskList1")
	.dwattr $C$DW$3, DW_AT_type(*$C$DW$T$114)
	.dwattr $C$DW$3, DW_AT_location[DW_OP_addr xDelayedTaskList1]
	.dwattr $C$DW$3, DW_AT_decl_file("../Tivaware_Dep/third_party/FreeRTOS/Source/tasks.c")
	.dwattr $C$DW$3, DW_AT_decl_line(0x166)
	.dwattr $C$DW$3, DW_AT_decl_column(0x1f)

xDelayedTaskList2:	.usect	".bss:xDelayedTaskList2",20,4
$C$DW$4	.dwtag  DW_TAG_variable
	.dwattr $C$DW$4, DW_AT_name("xDelayedTaskList2")
	.dwattr $C$DW$4, DW_AT_TI_symbol_name("xDelayedTaskList2")
	.dwattr $C$DW$4, DW_AT_type(*$C$DW$T$114)
	.dwattr $C$DW$4, DW_AT_location[DW_OP_addr xDelayedTaskList2]
	.dwattr $C$DW$4, DW_AT_decl_file("../Tivaware_Dep/third_party/FreeRTOS/Source/tasks.c")
	.dwattr $C$DW$4, DW_AT_decl_line(0x167)
	.dwattr $C$DW$4, DW_AT_decl_column(0x1f)

	.bss	pxDelayedTaskList,4,4
$C$DW$5	.dwtag  DW_TAG_variable
	.dwattr $C$DW$5, DW_AT_name("pxDelayedTaskList")
	.dwattr $C$DW$5, DW_AT_TI_symbol_name("pxDelayedTaskList")
	.dwattr $C$DW$5, DW_AT_type(*$C$DW$T$343)
	.dwattr $C$DW$5, DW_AT_location[DW_OP_addr pxDelayedTaskList]
	.dwattr $C$DW$5, DW_AT_decl_file("../Tivaware_Dep/third_party/FreeRTOS/Source/tasks.c")
	.dwattr $C$DW$5, DW_AT_decl_line(0x168)
	.dwattr $C$DW$5, DW_AT_decl_column(0x2a)

	.bss	pxOverflowDelayedTaskList,4,4
$C$DW$6	.dwtag  DW_TAG_variable
	.dwattr $C$DW$6, DW_AT_name("pxOverflowDelayedTaskList")
	.dwattr $C$DW$6, DW_AT_TI_symbol_name("pxOverflowDelayedTaskList")
	.dwattr $C$DW$6, DW_AT_type(*$C$DW$T$343)
	.dwattr $C$DW$6, DW_AT_location[DW_OP_addr pxOverflowDelayedTaskList]
	.dwattr $C$DW$6, DW_AT_decl_file("../Tivaware_Dep/third_party/FreeRTOS/Source/tasks.c")
	.dwattr $C$DW$6, DW_AT_decl_line(0x169)
	.dwattr $C$DW$6, DW_AT_decl_column(0x2a)

xPendingReadyList:	.usect	".bss:xPendingReadyList",20,4
$C$DW$7	.dwtag  DW_TAG_variable
	.dwattr $C$DW$7, DW_AT_name("xPendingReadyList")
	.dwattr $C$DW$7, DW_AT_TI_symbol_name("xPendingReadyList")
	.dwattr $C$DW$7, DW_AT_type(*$C$DW$T$114)
	.dwattr $C$DW$7, DW_AT_location[DW_OP_addr xPendingReadyList]
	.dwattr $C$DW$7, DW_AT_decl_file("../Tivaware_Dep/third_party/FreeRTOS/Source/tasks.c")
	.dwattr $C$DW$7, DW_AT_decl_line(0x16a)
	.dwattr $C$DW$7, DW_AT_decl_column(0x1f)

xTasksWaitingTermination:	.usect	".bss:xTasksWaitingTermination",20,4
$C$DW$8	.dwtag  DW_TAG_variable
	.dwattr $C$DW$8, DW_AT_name("xTasksWaitingTermination")
	.dwattr $C$DW$8, DW_AT_TI_symbol_name("xTasksWaitingTermination")
	.dwattr $C$DW$8, DW_AT_type(*$C$DW$T$114)
	.dwattr $C$DW$8, DW_AT_location[DW_OP_addr xTasksWaitingTermination]
	.dwattr $C$DW$8, DW_AT_decl_file("../Tivaware_Dep/third_party/FreeRTOS/Source/tasks.c")
	.dwattr $C$DW$8, DW_AT_decl_line(0x16e)
	.dwattr $C$DW$8, DW_AT_decl_column(0x20)

	.data
	.align	4
	.elfsym	uxDeletedTasksWaitingCleanUp,SYM_SIZE(4)
uxDeletedTasksWaitingCleanUp:
	.bits	0,32			; uxDeletedTasksWaitingCleanUp @ 0

$C$DW$9	.dwtag  DW_TAG_variable
	.dwattr $C$DW$9, DW_AT_name("uxDeletedTasksWaitingCleanUp")
	.dwattr $C$DW$9, DW_AT_TI_symbol_name("uxDeletedTasksWaitingCleanUp")
	.dwattr $C$DW$9, DW_AT_type(*$C$DW$T$46)
	.dwattr $C$DW$9, DW_AT_location[DW_OP_addr uxDeletedTasksWaitingCleanUp]
	.dwattr $C$DW$9, DW_AT_decl_file("../Tivaware_Dep/third_party/FreeRTOS/Source/tasks.c")
	.dwattr $C$DW$9, DW_AT_decl_line(0x16f)
	.dwattr $C$DW$9, DW_AT_decl_column(0x2e)

xSuspendedTaskList:	.usect	".bss:xSuspendedTaskList",20,4
$C$DW$10	.dwtag  DW_TAG_variable
	.dwattr $C$DW$10, DW_AT_name("xSuspendedTaskList")
	.dwattr $C$DW$10, DW_AT_TI_symbol_name("xSuspendedTaskList")
	.dwattr $C$DW$10, DW_AT_type(*$C$DW$T$114)
	.dwattr $C$DW$10, DW_AT_location[DW_OP_addr xSuspendedTaskList]
	.dwattr $C$DW$10, DW_AT_decl_file("../Tivaware_Dep/third_party/FreeRTOS/Source/tasks.c")
	.dwattr $C$DW$10, DW_AT_decl_line(0x175)
	.dwattr $C$DW$10, DW_AT_decl_column(0x20)

	.data
	.align	4
	.elfsym	uxCurrentNumberOfTasks,SYM_SIZE(4)
uxCurrentNumberOfTasks:
	.bits	0,32			; uxCurrentNumberOfTasks @ 0

$C$DW$11	.dwtag  DW_TAG_variable
	.dwattr $C$DW$11, DW_AT_name("uxCurrentNumberOfTasks")
	.dwattr $C$DW$11, DW_AT_TI_symbol_name("uxCurrentNumberOfTasks")
	.dwattr $C$DW$11, DW_AT_type(*$C$DW$T$46)
	.dwattr $C$DW$11, DW_AT_location[DW_OP_addr uxCurrentNumberOfTasks]
	.dwattr $C$DW$11, DW_AT_decl_file("../Tivaware_Dep/third_party/FreeRTOS/Source/tasks.c")
	.dwattr $C$DW$11, DW_AT_decl_line(0x180)
	.dwattr $C$DW$11, DW_AT_decl_column(0x2d)

	.data
	.align	4
	.elfsym	xTickCount,SYM_SIZE(4)
xTickCount:
	.bits	0,32			; xTickCount @ 0

$C$DW$12	.dwtag  DW_TAG_variable
	.dwattr $C$DW$12, DW_AT_name("xTickCount")
	.dwattr $C$DW$12, DW_AT_TI_symbol_name("xTickCount")
	.dwattr $C$DW$12, DW_AT_type(*$C$DW$T$260)
	.dwattr $C$DW$12, DW_AT_location[DW_OP_addr xTickCount]
	.dwattr $C$DW$12, DW_AT_decl_file("../Tivaware_Dep/third_party/FreeRTOS/Source/tasks.c")
	.dwattr $C$DW$12, DW_AT_decl_line(0x181)
	.dwattr $C$DW$12, DW_AT_decl_column(0x2c)

	.data
	.align	4
	.elfsym	uxTopReadyPriority,SYM_SIZE(4)
uxTopReadyPriority:
	.bits	0,32			; uxTopReadyPriority @ 0

$C$DW$13	.dwtag  DW_TAG_variable
	.dwattr $C$DW$13, DW_AT_name("uxTopReadyPriority")
	.dwattr $C$DW$13, DW_AT_TI_symbol_name("uxTopReadyPriority")
	.dwattr $C$DW$13, DW_AT_type(*$C$DW$T$46)
	.dwattr $C$DW$13, DW_AT_location[DW_OP_addr uxTopReadyPriority]
	.dwattr $C$DW$13, DW_AT_decl_file("../Tivaware_Dep/third_party/FreeRTOS/Source/tasks.c")
	.dwattr $C$DW$13, DW_AT_decl_line(0x182)
	.dwattr $C$DW$13, DW_AT_decl_column(0x2d)

	.data
	.align	4
	.elfsym	xSchedulerRunning,SYM_SIZE(4)
xSchedulerRunning:
	.bits	0,32			; xSchedulerRunning @ 0

$C$DW$14	.dwtag  DW_TAG_variable
	.dwattr $C$DW$14, DW_AT_name("xSchedulerRunning")
	.dwattr $C$DW$14, DW_AT_TI_symbol_name("xSchedulerRunning")
	.dwattr $C$DW$14, DW_AT_type(*$C$DW$T$271)
	.dwattr $C$DW$14, DW_AT_location[DW_OP_addr xSchedulerRunning]
	.dwattr $C$DW$14, DW_AT_decl_file("../Tivaware_Dep/third_party/FreeRTOS/Source/tasks.c")
	.dwattr $C$DW$14, DW_AT_decl_line(0x183)
	.dwattr $C$DW$14, DW_AT_decl_column(0x2c)

	.data
	.align	4
	.elfsym	uxPendedTicks,SYM_SIZE(4)
uxPendedTicks:
	.bits	0,32			; uxPendedTicks @ 0

$C$DW$15	.dwtag  DW_TAG_variable
	.dwattr $C$DW$15, DW_AT_name("uxPendedTicks")
	.dwattr $C$DW$15, DW_AT_TI_symbol_name("uxPendedTicks")
	.dwattr $C$DW$15, DW_AT_type(*$C$DW$T$46)
	.dwattr $C$DW$15, DW_AT_location[DW_OP_addr uxPendedTicks]
	.dwattr $C$DW$15, DW_AT_decl_file("../Tivaware_Dep/third_party/FreeRTOS/Source/tasks.c")
	.dwattr $C$DW$15, DW_AT_decl_line(0x184)
	.dwattr $C$DW$15, DW_AT_decl_column(0x2d)

	.data
	.align	4
	.elfsym	xYieldPending,SYM_SIZE(4)
xYieldPending:
	.bits	0,32			; xYieldPending @ 0

$C$DW$16	.dwtag  DW_TAG_variable
	.dwattr $C$DW$16, DW_AT_name("xYieldPending")
	.dwattr $C$DW$16, DW_AT_TI_symbol_name("xYieldPending")
	.dwattr $C$DW$16, DW_AT_type(*$C$DW$T$271)
	.dwattr $C$DW$16, DW_AT_location[DW_OP_addr xYieldPending]
	.dwattr $C$DW$16, DW_AT_decl_file("../Tivaware_Dep/third_party/FreeRTOS/Source/tasks.c")
	.dwattr $C$DW$16, DW_AT_decl_line(0x185)
	.dwattr $C$DW$16, DW_AT_decl_column(0x2c)

	.data
	.align	4
	.elfsym	xNumOfOverflows,SYM_SIZE(4)
xNumOfOverflows:
	.bits	0,32			; xNumOfOverflows @ 0

$C$DW$17	.dwtag  DW_TAG_variable
	.dwattr $C$DW$17, DW_AT_name("xNumOfOverflows")
	.dwattr $C$DW$17, DW_AT_TI_symbol_name("xNumOfOverflows")
	.dwattr $C$DW$17, DW_AT_type(*$C$DW$T$271)
	.dwattr $C$DW$17, DW_AT_location[DW_OP_addr xNumOfOverflows]
	.dwattr $C$DW$17, DW_AT_decl_file("../Tivaware_Dep/third_party/FreeRTOS/Source/tasks.c")
	.dwattr $C$DW$17, DW_AT_decl_line(0x186)
	.dwattr $C$DW$17, DW_AT_decl_column(0x2c)

	.data
	.align	4
	.elfsym	uxTaskNumber,SYM_SIZE(4)
uxTaskNumber:
	.bits	0,32			; uxTaskNumber @ 0

$C$DW$18	.dwtag  DW_TAG_variable
	.dwattr $C$DW$18, DW_AT_name("uxTaskNumber")
	.dwattr $C$DW$18, DW_AT_TI_symbol_name("uxTaskNumber")
	.dwattr $C$DW$18, DW_AT_type(*$C$DW$T$26)
	.dwattr $C$DW$18, DW_AT_location[DW_OP_addr uxTaskNumber]
	.dwattr $C$DW$18, DW_AT_decl_file("../Tivaware_Dep/third_party/FreeRTOS/Source/tasks.c")
	.dwattr $C$DW$18, DW_AT_decl_line(0x187)
	.dwattr $C$DW$18, DW_AT_decl_column(0x24)

	.data
	.align	4
	.elfsym	xNextTaskUnblockTime,SYM_SIZE(4)
xNextTaskUnblockTime:
	.bits	0,32			; xNextTaskUnblockTime @ 0

$C$DW$19	.dwtag  DW_TAG_variable
	.dwattr $C$DW$19, DW_AT_name("xNextTaskUnblockTime")
	.dwattr $C$DW$19, DW_AT_TI_symbol_name("xNextTaskUnblockTime")
	.dwattr $C$DW$19, DW_AT_type(*$C$DW$T$260)
	.dwattr $C$DW$19, DW_AT_location[DW_OP_addr xNextTaskUnblockTime]
	.dwattr $C$DW$19, DW_AT_decl_file("../Tivaware_Dep/third_party/FreeRTOS/Source/tasks.c")
	.dwattr $C$DW$19, DW_AT_decl_line(0x188)
	.dwattr $C$DW$19, DW_AT_decl_column(0x2c)

	.data
	.align	4
	.elfsym	xIdleTaskHandle,SYM_SIZE(4)
xIdleTaskHandle:
	.bits	0,32			; xIdleTaskHandle @ 0

$C$DW$20	.dwtag  DW_TAG_variable
	.dwattr $C$DW$20, DW_AT_name("xIdleTaskHandle")
	.dwattr $C$DW$20, DW_AT_TI_symbol_name("xIdleTaskHandle")
	.dwattr $C$DW$20, DW_AT_type(*$C$DW$T$89)
	.dwattr $C$DW$20, DW_AT_location[DW_OP_addr xIdleTaskHandle]
	.dwattr $C$DW$20, DW_AT_decl_file("../Tivaware_Dep/third_party/FreeRTOS/Source/tasks.c")
	.dwattr $C$DW$20, DW_AT_decl_line(0x189)
	.dwattr $C$DW$20, DW_AT_decl_column(0x25)

	.data
	.align	4
	.elfsym	uxSchedulerSuspended,SYM_SIZE(4)
uxSchedulerSuspended:
	.bits	0,32			; uxSchedulerSuspended @ 0

$C$DW$21	.dwtag  DW_TAG_variable
	.dwattr $C$DW$21, DW_AT_name("uxSchedulerSuspended")
	.dwattr $C$DW$21, DW_AT_TI_symbol_name("uxSchedulerSuspended")
	.dwattr $C$DW$21, DW_AT_type(*$C$DW$T$46)
	.dwattr $C$DW$21, DW_AT_location[DW_OP_addr uxSchedulerSuspended]
	.dwattr $C$DW$21, DW_AT_decl_file("../Tivaware_Dep/third_party/FreeRTOS/Source/tasks.c")
	.dwattr $C$DW$21, DW_AT_decl_line(0x193)
	.dwattr $C$DW$21, DW_AT_decl_column(0x2d)


$C$DW$22	.dwtag  DW_TAG_subprogram
	.dwattr $C$DW$22, DW_AT_name("pvPortMalloc")
	.dwattr $C$DW$22, DW_AT_TI_symbol_name("pvPortMalloc")
	.dwattr $C$DW$22, DW_AT_type(*$C$DW$T$3)
	.dwattr $C$DW$22, DW_AT_declaration
	.dwattr $C$DW$22, DW_AT_external
	.dwattr $C$DW$22, DW_AT_decl_file("/home/kd/Multimeter_TivaC/Tivaware_Dep/third_party/FreeRTOS/Source/include/portable.h")
	.dwattr $C$DW$22, DW_AT_decl_line(0x81)
	.dwattr $C$DW$22, DW_AT_decl_column(0x07)
$C$DW$23	.dwtag  DW_TAG_formal_parameter
	.dwattr $C$DW$23, DW_AT_type(*$C$DW$T$31)

	.dwendtag $C$DW$22


$C$DW$24	.dwtag  DW_TAG_subprogram
	.dwattr $C$DW$24, DW_AT_name("vPortFree")
	.dwattr $C$DW$24, DW_AT_TI_symbol_name("vPortFree")
	.dwattr $C$DW$24, DW_AT_declaration
	.dwattr $C$DW$24, DW_AT_external
	.dwattr $C$DW$24, DW_AT_decl_file("/home/kd/Multimeter_TivaC/Tivaware_Dep/third_party/FreeRTOS/Source/include/portable.h")
	.dwattr $C$DW$24, DW_AT_decl_line(0x82)
	.dwattr $C$DW$24, DW_AT_decl_column(0x06)
$C$DW$25	.dwtag  DW_TAG_formal_parameter
	.dwattr $C$DW$25, DW_AT_type(*$C$DW$T$3)

	.dwendtag $C$DW$24


$C$DW$26	.dwtag  DW_TAG_subprogram
	.dwattr $C$DW$26, DW_AT_name("memset")
	.dwattr $C$DW$26, DW_AT_TI_symbol_name("memset")
	.dwattr $C$DW$26, DW_AT_type(*$C$DW$T$3)
	.dwattr $C$DW$26, DW_AT_declaration
	.dwattr $C$DW$26, DW_AT_external
	.dwattr $C$DW$26, DW_AT_decl_file("/opt/ti/ccsv8/tools/compiler/ti-cgt-arm_18.1.3.LTS/include/string.h")
	.dwattr $C$DW$26, DW_AT_decl_line(0x7a)
	.dwattr $C$DW$26, DW_AT_decl_column(0x16)
$C$DW$27	.dwtag  DW_TAG_formal_parameter
	.dwattr $C$DW$27, DW_AT_type(*$C$DW$T$3)

$C$DW$28	.dwtag  DW_TAG_formal_parameter
	.dwattr $C$DW$28, DW_AT_type(*$C$DW$T$10)

$C$DW$29	.dwtag  DW_TAG_formal_parameter
	.dwattr $C$DW$29, DW_AT_type(*$C$DW$T$31)

	.dwendtag $C$DW$26


$C$DW$30	.dwtag  DW_TAG_subprogram
	.dwattr $C$DW$30, DW_AT_name("vListInitialiseItem")
	.dwattr $C$DW$30, DW_AT_TI_symbol_name("vListInitialiseItem")
	.dwattr $C$DW$30, DW_AT_declaration
	.dwattr $C$DW$30, DW_AT_external
	.dwattr $C$DW$30, DW_AT_decl_file("/home/kd/Multimeter_TivaC/Tivaware_Dep/third_party/FreeRTOS/Source/include/list.h")
	.dwattr $C$DW$30, DW_AT_decl_line(0x164)
	.dwattr $C$DW$30, DW_AT_decl_column(0x06)
$C$DW$31	.dwtag  DW_TAG_formal_parameter
	.dwattr $C$DW$31, DW_AT_type(*$C$DW$T$119)

	.dwendtag $C$DW$30


$C$DW$32	.dwtag  DW_TAG_subprogram
	.dwattr $C$DW$32, DW_AT_name("pxPortInitialiseStack")
	.dwattr $C$DW$32, DW_AT_TI_symbol_name("pxPortInitialiseStack")
	.dwattr $C$DW$32, DW_AT_type(*$C$DW$T$40)
	.dwattr $C$DW$32, DW_AT_declaration
	.dwattr $C$DW$32, DW_AT_external
	.dwattr $C$DW$32, DW_AT_decl_file("/home/kd/Multimeter_TivaC/Tivaware_Dep/third_party/FreeRTOS/Source/include/portable.h")
	.dwattr $C$DW$32, DW_AT_decl_line(0x66)
	.dwattr $C$DW$32, DW_AT_decl_column(0x0f)
$C$DW$33	.dwtag  DW_TAG_formal_parameter
	.dwattr $C$DW$33, DW_AT_type(*$C$DW$T$40)

$C$DW$34	.dwtag  DW_TAG_formal_parameter
	.dwattr $C$DW$34, DW_AT_type(*$C$DW$T$78)

$C$DW$35	.dwtag  DW_TAG_formal_parameter
	.dwattr $C$DW$35, DW_AT_type(*$C$DW$T$3)

	.dwendtag $C$DW$32


$C$DW$36	.dwtag  DW_TAG_subprogram
	.dwattr $C$DW$36, DW_AT_name("vPortEnterCritical")
	.dwattr $C$DW$36, DW_AT_TI_symbol_name("vPortEnterCritical")
	.dwattr $C$DW$36, DW_AT_declaration
	.dwattr $C$DW$36, DW_AT_external
	.dwattr $C$DW$36, DW_AT_decl_file("/home/kd/Multimeter_TivaC/Tivaware_Dep/third_party/FreeRTOS/Source/portable/CCS/ARM_CM4F/portmacro.h")
	.dwattr $C$DW$36, DW_AT_decl_line(0x76)
	.dwattr $C$DW$36, DW_AT_decl_column(0x0d)
	.dwendtag $C$DW$36


$C$DW$37	.dwtag  DW_TAG_subprogram
	.dwattr $C$DW$37, DW_AT_name("vListInsertEnd")
	.dwattr $C$DW$37, DW_AT_TI_symbol_name("vListInsertEnd")
	.dwattr $C$DW$37, DW_AT_declaration
	.dwattr $C$DW$37, DW_AT_external
	.dwattr $C$DW$37, DW_AT_decl_file("/home/kd/Multimeter_TivaC/Tivaware_Dep/third_party/FreeRTOS/Source/include/list.h")
	.dwattr $C$DW$37, DW_AT_decl_line(0x186)
	.dwattr $C$DW$37, DW_AT_decl_column(0x06)
$C$DW$38	.dwtag  DW_TAG_formal_parameter
	.dwattr $C$DW$38, DW_AT_type(*$C$DW$T$116)

$C$DW$39	.dwtag  DW_TAG_formal_parameter
	.dwattr $C$DW$39, DW_AT_type(*$C$DW$T$119)

	.dwendtag $C$DW$37


$C$DW$40	.dwtag  DW_TAG_subprogram
	.dwattr $C$DW$40, DW_AT_name("vPortExitCritical")
	.dwattr $C$DW$40, DW_AT_TI_symbol_name("vPortExitCritical")
	.dwattr $C$DW$40, DW_AT_declaration
	.dwattr $C$DW$40, DW_AT_external
	.dwattr $C$DW$40, DW_AT_decl_file("/home/kd/Multimeter_TivaC/Tivaware_Dep/third_party/FreeRTOS/Source/portable/CCS/ARM_CM4F/portmacro.h")
	.dwattr $C$DW$40, DW_AT_decl_line(0x77)
	.dwattr $C$DW$40, DW_AT_decl_column(0x0d)
	.dwendtag $C$DW$40


$C$DW$41	.dwtag  DW_TAG_subprogram
	.dwattr $C$DW$41, DW_AT_name("uxListRemove")
	.dwattr $C$DW$41, DW_AT_TI_symbol_name("uxListRemove")
	.dwattr $C$DW$41, DW_AT_type(*$C$DW$T$26)
	.dwattr $C$DW$41, DW_AT_declaration
	.dwattr $C$DW$41, DW_AT_external
	.dwattr $C$DW$41, DW_AT_decl_file("/home/kd/Multimeter_TivaC/Tivaware_Dep/third_party/FreeRTOS/Source/include/list.h")
	.dwattr $C$DW$41, DW_AT_decl_line(0x195)
	.dwattr $C$DW$41, DW_AT_decl_column(0x0d)
$C$DW$42	.dwtag  DW_TAG_formal_parameter
	.dwattr $C$DW$42, DW_AT_type(*$C$DW$T$119)

	.dwendtag $C$DW$41


$C$DW$43	.dwtag  DW_TAG_subprogram
	.dwattr $C$DW$43, DW_AT_name("xPortStartScheduler")
	.dwattr $C$DW$43, DW_AT_TI_symbol_name("xPortStartScheduler")
	.dwattr $C$DW$43, DW_AT_type(*$C$DW$T$93)
	.dwattr $C$DW$43, DW_AT_declaration
	.dwattr $C$DW$43, DW_AT_external
	.dwattr $C$DW$43, DW_AT_decl_file("/home/kd/Multimeter_TivaC/Tivaware_Dep/third_party/FreeRTOS/Source/include/portable.h")
	.dwattr $C$DW$43, DW_AT_decl_line(0x8b)
	.dwattr $C$DW$43, DW_AT_decl_column(0x0c)
	.dwendtag $C$DW$43


$C$DW$44	.dwtag  DW_TAG_subprogram
	.dwattr $C$DW$44, DW_AT_name("vPortEndScheduler")
	.dwattr $C$DW$44, DW_AT_TI_symbol_name("vPortEndScheduler")
	.dwattr $C$DW$44, DW_AT_declaration
	.dwattr $C$DW$44, DW_AT_external
	.dwattr $C$DW$44, DW_AT_decl_file("/home/kd/Multimeter_TivaC/Tivaware_Dep/third_party/FreeRTOS/Source/include/portable.h")
	.dwattr $C$DW$44, DW_AT_decl_line(0x92)
	.dwattr $C$DW$44, DW_AT_decl_column(0x06)
	.dwendtag $C$DW$44


$C$DW$45	.dwtag  DW_TAG_subprogram
	.dwattr $C$DW$45, DW_AT_name("vApplicationStackOverflowHook")
	.dwattr $C$DW$45, DW_AT_TI_symbol_name("vApplicationStackOverflowHook")
	.dwattr $C$DW$45, DW_AT_declaration
	.dwattr $C$DW$45, DW_AT_external
	.dwattr $C$DW$45, DW_AT_decl_file("../Tivaware_Dep/third_party/FreeRTOS/Source/tasks.c")
	.dwattr $C$DW$45, DW_AT_decl_line(0x1a5)
	.dwattr $C$DW$45, DW_AT_decl_column(0x0e)
$C$DW$46	.dwtag  DW_TAG_formal_parameter
	.dwattr $C$DW$46, DW_AT_type(*$C$DW$T$89)

$C$DW$47	.dwtag  DW_TAG_formal_parameter
	.dwattr $C$DW$47, DW_AT_type(*$C$DW$T$124)

	.dwendtag $C$DW$45


$C$DW$48	.dwtag  DW_TAG_subprogram
	.dwattr $C$DW$48, DW_AT_name("vListInsert")
	.dwattr $C$DW$48, DW_AT_TI_symbol_name("vListInsert")
	.dwattr $C$DW$48, DW_AT_declaration
	.dwattr $C$DW$48, DW_AT_external
	.dwattr $C$DW$48, DW_AT_decl_file("/home/kd/Multimeter_TivaC/Tivaware_Dep/third_party/FreeRTOS/Source/include/list.h")
	.dwattr $C$DW$48, DW_AT_decl_line(0x171)
	.dwattr $C$DW$48, DW_AT_decl_column(0x06)
$C$DW$49	.dwtag  DW_TAG_formal_parameter
	.dwattr $C$DW$49, DW_AT_type(*$C$DW$T$116)

$C$DW$50	.dwtag  DW_TAG_formal_parameter
	.dwattr $C$DW$50, DW_AT_type(*$C$DW$T$119)

	.dwendtag $C$DW$48


$C$DW$51	.dwtag  DW_TAG_subprogram
	.dwattr $C$DW$51, DW_AT_name("vListInitialise")
	.dwattr $C$DW$51, DW_AT_TI_symbol_name("vListInitialise")
	.dwattr $C$DW$51, DW_AT_declaration
	.dwattr $C$DW$51, DW_AT_external
	.dwattr $C$DW$51, DW_AT_decl_file("/home/kd/Multimeter_TivaC/Tivaware_Dep/third_party/FreeRTOS/Source/include/list.h")
	.dwattr $C$DW$51, DW_AT_decl_line(0x159)
	.dwattr $C$DW$51, DW_AT_decl_column(0x06)
$C$DW$52	.dwtag  DW_TAG_formal_parameter
	.dwattr $C$DW$52, DW_AT_type(*$C$DW$T$116)

	.dwendtag $C$DW$51

;	/opt/ti/ccsv8/tools/compiler/ti-cgt-arm_18.1.3.LTS/bin/armacpia -@/tmp/TI0Y8T3WoAA 
	.sect	".text:xTaskCreate"
	.clink
	.thumbfunc xTaskCreate
	.thumb
	.global	xTaskCreate

$C$DW$53	.dwtag  DW_TAG_subprogram
	.dwattr $C$DW$53, DW_AT_name("xTaskCreate")
	.dwattr $C$DW$53, DW_AT_low_pc(xTaskCreate)
	.dwattr $C$DW$53, DW_AT_high_pc(0x00)
	.dwattr $C$DW$53, DW_AT_TI_symbol_name("xTaskCreate")
	.dwattr $C$DW$53, DW_AT_external
	.dwattr $C$DW$53, DW_AT_type(*$C$DW$T$93)
	.dwattr $C$DW$53, DW_AT_TI_begin_file("../Tivaware_Dep/third_party/FreeRTOS/Source/tasks.c")
	.dwattr $C$DW$53, DW_AT_TI_begin_line(0x2eb)
	.dwattr $C$DW$53, DW_AT_TI_begin_column(0x0d)
	.dwattr $C$DW$53, DW_AT_decl_file("../Tivaware_Dep/third_party/FreeRTOS/Source/tasks.c")
	.dwattr $C$DW$53, DW_AT_decl_line(0x2eb)
	.dwattr $C$DW$53, DW_AT_decl_column(0x0d)
	.dwattr $C$DW$53, DW_AT_TI_max_frame_size(0x30)
	.dwpsn	file "../Tivaware_Dep/third_party/FreeRTOS/Source/tasks.c",line 753,column 2,is_stmt,address xTaskCreate,isa 1

	.dwfde $C$DW$CIE, xTaskCreate
$C$DW$54	.dwtag  DW_TAG_formal_parameter
	.dwattr $C$DW$54, DW_AT_name("pxTaskCode")
	.dwattr $C$DW$54, DW_AT_TI_symbol_name("pxTaskCode")
	.dwattr $C$DW$54, DW_AT_type(*$C$DW$T$78)
	.dwattr $C$DW$54, DW_AT_location[DW_OP_reg0]

$C$DW$55	.dwtag  DW_TAG_formal_parameter
	.dwattr $C$DW$55, DW_AT_name("pcName")
	.dwattr $C$DW$55, DW_AT_TI_symbol_name("pcName")
	.dwattr $C$DW$55, DW_AT_type(*$C$DW$T$82)
	.dwattr $C$DW$55, DW_AT_location[DW_OP_reg1]

$C$DW$56	.dwtag  DW_TAG_formal_parameter
	.dwattr $C$DW$56, DW_AT_name("usStackDepth")
	.dwattr $C$DW$56, DW_AT_TI_symbol_name("usStackDepth")
	.dwattr $C$DW$56, DW_AT_type(*$C$DW$T$127)
	.dwattr $C$DW$56, DW_AT_location[DW_OP_reg2]

$C$DW$57	.dwtag  DW_TAG_formal_parameter
	.dwattr $C$DW$57, DW_AT_name("pvParameters")
	.dwattr $C$DW$57, DW_AT_TI_symbol_name("pvParameters")
	.dwattr $C$DW$57, DW_AT_type(*$C$DW$T$110)
	.dwattr $C$DW$57, DW_AT_location[DW_OP_reg3]

$C$DW$58	.dwtag  DW_TAG_formal_parameter
	.dwattr $C$DW$58, DW_AT_name("uxPriority")
	.dwattr $C$DW$58, DW_AT_TI_symbol_name("uxPriority")
	.dwattr $C$DW$58, DW_AT_type(*$C$DW$T$26)
	.dwattr $C$DW$58, DW_AT_location[DW_OP_breg13 48]

$C$DW$59	.dwtag  DW_TAG_formal_parameter
	.dwattr $C$DW$59, DW_AT_name("pxCreatedTask")
	.dwattr $C$DW$59, DW_AT_TI_symbol_name("pxCreatedTask")
	.dwattr $C$DW$59, DW_AT_type(*$C$DW$T$129)
	.dwattr $C$DW$59, DW_AT_location[DW_OP_breg13 52]


;*****************************************************************************
;* FUNCTION NAME: xTaskCreate                                                *
;*                                                                           *
;*   Regs Modified     : A1,A2,A3,A4,V9,SP,LR,SR,D0,D0_hi,D1,D1_hi,D2,D2_hi, *
;*                           D3,D3_hi,D4,D4_hi,D5,D5_hi,D6,D6_hi,D7,D7_hi,   *
;*                           FPEXC,FPSCR                                     *
;*   Regs Used         : A1,A2,A3,A4,V9,SP,LR,SR,D0,D0_hi,D1,D1_hi,D2,D2_hi, *
;*                           D3,D3_hi,D4,D4_hi,D5,D5_hi,D6,D6_hi,D7,D7_hi,   *
;*                           FPEXC,FPSCR                                     *
;*   Local Frame Size  : 16 Args + 28 Auto + 4 Save = 48 byte                *
;*****************************************************************************
xTaskCreate:
;* --------------------------------------------------------------------------*
	.dwcfi	cfa_offset, 0
        PUSH      {LR}                  ; [DPU_V7M3_PIPE] 
	.dwcfi	cfa_offset, 4
	.dwcfi	save_reg_to_mem, 14, -4
        SUB       SP, SP, #44           ; [DPU_V7M3_PIPE] 
	.dwcfi	cfa_offset, 48
$C$DW$60	.dwtag  DW_TAG_variable
	.dwattr $C$DW$60, DW_AT_name("pxTaskCode")
	.dwattr $C$DW$60, DW_AT_TI_symbol_name("pxTaskCode")
	.dwattr $C$DW$60, DW_AT_type(*$C$DW$T$78)
	.dwattr $C$DW$60, DW_AT_location[DW_OP_breg13 16]

$C$DW$61	.dwtag  DW_TAG_variable
	.dwattr $C$DW$61, DW_AT_name("pcName")
	.dwattr $C$DW$61, DW_AT_TI_symbol_name("pcName")
	.dwattr $C$DW$61, DW_AT_type(*$C$DW$T$82)
	.dwattr $C$DW$61, DW_AT_location[DW_OP_breg13 20]

$C$DW$62	.dwtag  DW_TAG_variable
	.dwattr $C$DW$62, DW_AT_name("usStackDepth")
	.dwattr $C$DW$62, DW_AT_TI_symbol_name("usStackDepth")
	.dwattr $C$DW$62, DW_AT_type(*$C$DW$T$127)
	.dwattr $C$DW$62, DW_AT_location[DW_OP_breg13 24]

$C$DW$63	.dwtag  DW_TAG_variable
	.dwattr $C$DW$63, DW_AT_name("pvParameters")
	.dwattr $C$DW$63, DW_AT_TI_symbol_name("pvParameters")
	.dwattr $C$DW$63, DW_AT_type(*$C$DW$T$110)
	.dwattr $C$DW$63, DW_AT_location[DW_OP_breg13 28]

$C$DW$64	.dwtag  DW_TAG_variable
	.dwattr $C$DW$64, DW_AT_name("pxNewTCB")
	.dwattr $C$DW$64, DW_AT_TI_symbol_name("pxNewTCB")
	.dwattr $C$DW$64, DW_AT_type(*$C$DW$T$132)
	.dwattr $C$DW$64, DW_AT_location[DW_OP_breg13 32]

$C$DW$65	.dwtag  DW_TAG_variable
	.dwattr $C$DW$65, DW_AT_name("xReturn")
	.dwattr $C$DW$65, DW_AT_TI_symbol_name("xReturn")
	.dwattr $C$DW$65, DW_AT_type(*$C$DW$T$93)
	.dwattr $C$DW$65, DW_AT_location[DW_OP_breg13 36]

        STR       A4, [SP, #28]         ; [DPU_V7M3_PIPE] |753| 
        STR       A3, [SP, #24]         ; [DPU_V7M3_PIPE] |753| 
        STR       A2, [SP, #20]         ; [DPU_V7M3_PIPE] |753| 
        STR       A1, [SP, #16]         ; [DPU_V7M3_PIPE] |753| 

$C$DW$66	.dwtag  DW_TAG_lexical_block
	.dwattr $C$DW$66, DW_AT_low_pc(0x00)
	.dwattr $C$DW$66, DW_AT_high_pc(0x00)
$C$DW$67	.dwtag  DW_TAG_variable
	.dwattr $C$DW$67, DW_AT_name("pxStack")
	.dwattr $C$DW$67, DW_AT_TI_symbol_name("pxStack")
	.dwattr $C$DW$67, DW_AT_type(*$C$DW$T$40)
	.dwattr $C$DW$67, DW_AT_location[DW_OP_breg13 40]

	.dwpsn	file "../Tivaware_Dep/third_party/FreeRTOS/Source/tasks.c",line 787,column 4,is_stmt,isa 1
        LDR       A1, [SP, #24]         ; [DPU_V7M3_PIPE] |787| 
        LSLS      A1, A1, #2            ; [DPU_V7M3_PIPE] |787| 
$C$DW$68	.dwtag  DW_TAG_TI_branch
	.dwattr $C$DW$68, DW_AT_low_pc(0x00)
	.dwattr $C$DW$68, DW_AT_name("pvPortMalloc")
	.dwattr $C$DW$68, DW_AT_TI_call

        BL        pvPortMalloc          ; [DPU_V7M3_PIPE] |787| 
        ; CALL OCCURS {pvPortMalloc }    ; [] |787| 
        STR       A1, [SP, #40]         ; [DPU_V7M3_PIPE] |787| 
	.dwpsn	file "../Tivaware_Dep/third_party/FreeRTOS/Source/tasks.c",line 789,column 4,is_stmt,isa 1
        LDR       A1, [SP, #40]         ; [DPU_V7M3_PIPE] |789| 
        CBZ       A1, ||$C$L2||         ; [] 
        ; BRANCHCC OCCURS {||$C$L2||}    ; [] |789| 
;* --------------------------------------------------------------------------*
	.dwpsn	file "../Tivaware_Dep/third_party/FreeRTOS/Source/tasks.c",line 792,column 5,is_stmt,isa 1
        MOVS      A1, #96               ; [DPU_V7M3_PIPE] |792| 
$C$DW$69	.dwtag  DW_TAG_TI_branch
	.dwattr $C$DW$69, DW_AT_low_pc(0x00)
	.dwattr $C$DW$69, DW_AT_name("pvPortMalloc")
	.dwattr $C$DW$69, DW_AT_TI_call

        BL        pvPortMalloc          ; [DPU_V7M3_PIPE] |792| 
        ; CALL OCCURS {pvPortMalloc }    ; [] |792| 
        STR       A1, [SP, #32]         ; [DPU_V7M3_PIPE] |792| 
	.dwpsn	file "../Tivaware_Dep/third_party/FreeRTOS/Source/tasks.c",line 794,column 5,is_stmt,isa 1
        LDR       A1, [SP, #32]         ; [DPU_V7M3_PIPE] |794| 
        CBZ       A1, ||$C$L1||         ; [] 
        ; BRANCHCC OCCURS {||$C$L1||}    ; [] |794| 
;* --------------------------------------------------------------------------*
	.dwpsn	file "../Tivaware_Dep/third_party/FreeRTOS/Source/tasks.c",line 797,column 6,is_stmt,isa 1
        LDR       A1, [SP, #40]         ; [DPU_V7M3_PIPE] |797| 
        LDR       A2, [SP, #32]         ; [DPU_V7M3_PIPE] |797| 
        STR       A1, [A2, #48]         ; [DPU_V7M3_PIPE] |797| 
	.dwpsn	file "../Tivaware_Dep/third_party/FreeRTOS/Source/tasks.c",line 798,column 5,is_stmt,isa 1
        B         ||$C$L3||             ; [DPU_V7M3_PIPE] |798| 
        ; BRANCH OCCURS {||$C$L3||}      ; [] |798| 
;* --------------------------------------------------------------------------*
||$C$L1||:    
	.dwpsn	file "../Tivaware_Dep/third_party/FreeRTOS/Source/tasks.c",line 803,column 6,is_stmt,isa 1
        LDR       A1, [SP, #40]         ; [DPU_V7M3_PIPE] |803| 
$C$DW$70	.dwtag  DW_TAG_TI_branch
	.dwattr $C$DW$70, DW_AT_low_pc(0x00)
	.dwattr $C$DW$70, DW_AT_name("vPortFree")
	.dwattr $C$DW$70, DW_AT_TI_call

        BL        vPortFree             ; [DPU_V7M3_PIPE] |803| 
        ; CALL OCCURS {vPortFree }       ; [] |803| 
	.dwpsn	file "../Tivaware_Dep/third_party/FreeRTOS/Source/tasks.c",line 805,column 4,is_stmt,isa 1
        B         ||$C$L3||             ; [DPU_V7M3_PIPE] |805| 
        ; BRANCH OCCURS {||$C$L3||}      ; [] |805| 
;* --------------------------------------------------------------------------*
||$C$L2||:    
	.dwpsn	file "../Tivaware_Dep/third_party/FreeRTOS/Source/tasks.c",line 808,column 5,is_stmt,isa 1
        MOVS      A1, #0                ; [DPU_V7M3_PIPE] |808| 
        STR       A1, [SP, #32]         ; [DPU_V7M3_PIPE] |808| 
;* --------------------------------------------------------------------------*
||$C$L3||:    
	.dwendtag $C$DW$66

	.dwpsn	file "../Tivaware_Dep/third_party/FreeRTOS/Source/tasks.c",line 813,column 3,is_stmt,isa 1
        LDR       A1, [SP, #32]         ; [DPU_V7M3_PIPE] |813| 
        CBZ       A1, ||$C$L4||         ; [] 
        ; BRANCHCC OCCURS {||$C$L4||}    ; [] |813| 
;* --------------------------------------------------------------------------*
	.dwpsn	file "../Tivaware_Dep/third_party/FreeRTOS/Source/tasks.c",line 823,column 4,is_stmt,isa 1
        LDR       A1, [SP, #48]         ; [DPU_V7M3_PIPE] |823| 
        STR       A1, [SP, #0]          ; [DPU_V7M3_PIPE] |823| 
        LDR       A1, [SP, #52]         ; [DPU_V7M3_PIPE] |823| 
        STR       A1, [SP, #4]          ; [DPU_V7M3_PIPE] |823| 
        LDR       A1, [SP, #32]         ; [DPU_V7M3_PIPE] |823| 
        STR       A1, [SP, #8]          ; [DPU_V7M3_PIPE] |823| 
        MOVS      A1, #0                ; [DPU_V7M3_PIPE] |823| 
        STR       A1, [SP, #12]         ; [DPU_V7M3_PIPE] |823| 
        LDR       A2, [SP, #20]         ; [DPU_V7M3_PIPE] |823| 
        LDR       A3, [SP, #24]         ; [DPU_V7M3_PIPE] |823| 
        LDR       A4, [SP, #28]         ; [DPU_V7M3_PIPE] |823| 
        LDR       A1, [SP, #16]         ; [DPU_V7M3_PIPE] |823| 
$C$DW$71	.dwtag  DW_TAG_TI_branch
	.dwattr $C$DW$71, DW_AT_low_pc(0x00)
	.dwattr $C$DW$71, DW_AT_name("prvInitialiseNewTask")
	.dwattr $C$DW$71, DW_AT_TI_call

        BL        prvInitialiseNewTask  ; [DPU_V7M3_PIPE] |823| 
        ; CALL OCCURS {prvInitialiseNewTask }  ; [] |823| 
	.dwpsn	file "../Tivaware_Dep/third_party/FreeRTOS/Source/tasks.c",line 824,column 4,is_stmt,isa 1
        LDR       A1, [SP, #32]         ; [DPU_V7M3_PIPE] |824| 
$C$DW$72	.dwtag  DW_TAG_TI_branch
	.dwattr $C$DW$72, DW_AT_low_pc(0x00)
	.dwattr $C$DW$72, DW_AT_name("prvAddNewTaskToReadyList")
	.dwattr $C$DW$72, DW_AT_TI_call

        BL        prvAddNewTaskToReadyList ; [DPU_V7M3_PIPE] |824| 
        ; CALL OCCURS {prvAddNewTaskToReadyList }  ; [] |824| 
	.dwpsn	file "../Tivaware_Dep/third_party/FreeRTOS/Source/tasks.c",line 825,column 4,is_stmt,isa 1
        MOVS      A1, #1                ; [DPU_V7M3_PIPE] |825| 
        STR       A1, [SP, #36]         ; [DPU_V7M3_PIPE] |825| 
	.dwpsn	file "../Tivaware_Dep/third_party/FreeRTOS/Source/tasks.c",line 826,column 3,is_stmt,isa 1
        B         ||$C$L5||             ; [DPU_V7M3_PIPE] |826| 
        ; BRANCH OCCURS {||$C$L5||}      ; [] |826| 
;* --------------------------------------------------------------------------*
||$C$L4||:    
	.dwpsn	file "../Tivaware_Dep/third_party/FreeRTOS/Source/tasks.c",line 829,column 4,is_stmt,isa 1
        MOV       A1, #-1               ; [DPU_V7M3_PIPE] |829| 
        STR       A1, [SP, #36]         ; [DPU_V7M3_PIPE] |829| 
;* --------------------------------------------------------------------------*
||$C$L5||:    
	.dwpsn	file "../Tivaware_Dep/third_party/FreeRTOS/Source/tasks.c",line 832,column 3,is_stmt,isa 1
        LDR       A1, [SP, #36]         ; [DPU_V7M3_PIPE] |832| 
	.dwpsn	file "../Tivaware_Dep/third_party/FreeRTOS/Source/tasks.c",line 833,column 2,is_stmt,isa 1
        ADD       SP, SP, #44           ; [DPU_V7M3_PIPE] 
	.dwcfi	cfa_offset, 4
$C$DW$73	.dwtag  DW_TAG_TI_branch
	.dwattr $C$DW$73, DW_AT_low_pc(0x00)
	.dwattr $C$DW$73, DW_AT_TI_return

        POP       {PC}                  ; [DPU_V7M3_PIPE] 
	.dwcfi	cfa_offset, 0
        ; BRANCH OCCURS                  ; [] 
	.dwattr $C$DW$53, DW_AT_TI_end_file("../Tivaware_Dep/third_party/FreeRTOS/Source/tasks.c")
	.dwattr $C$DW$53, DW_AT_TI_end_line(0x341)
	.dwattr $C$DW$53, DW_AT_TI_end_column(0x02)
	.dwendentry
	.dwendtag $C$DW$53

	.sect	".text:prvInitialiseNewTask"
	.clink
	.thumbfunc prvInitialiseNewTask
	.thumb

$C$DW$74	.dwtag  DW_TAG_subprogram
	.dwattr $C$DW$74, DW_AT_name("prvInitialiseNewTask")
	.dwattr $C$DW$74, DW_AT_low_pc(prvInitialiseNewTask)
	.dwattr $C$DW$74, DW_AT_high_pc(0x00)
	.dwattr $C$DW$74, DW_AT_TI_symbol_name("prvInitialiseNewTask")
	.dwattr $C$DW$74, DW_AT_TI_begin_file("../Tivaware_Dep/third_party/FreeRTOS/Source/tasks.c")
	.dwattr $C$DW$74, DW_AT_TI_begin_line(0x346)
	.dwattr $C$DW$74, DW_AT_TI_begin_column(0x0d)
	.dwattr $C$DW$74, DW_AT_decl_file("../Tivaware_Dep/third_party/FreeRTOS/Source/tasks.c")
	.dwattr $C$DW$74, DW_AT_decl_line(0x346)
	.dwattr $C$DW$74, DW_AT_decl_column(0x0d)
	.dwattr $C$DW$74, DW_AT_TI_max_frame_size(0x20)
	.dwpsn	file "../Tivaware_Dep/third_party/FreeRTOS/Source/tasks.c",line 846,column 1,is_stmt,address prvInitialiseNewTask,isa 1

	.dwfde $C$DW$CIE, prvInitialiseNewTask
$C$DW$75	.dwtag  DW_TAG_formal_parameter
	.dwattr $C$DW$75, DW_AT_name("pxTaskCode")
	.dwattr $C$DW$75, DW_AT_TI_symbol_name("pxTaskCode")
	.dwattr $C$DW$75, DW_AT_type(*$C$DW$T$78)
	.dwattr $C$DW$75, DW_AT_location[DW_OP_reg0]

$C$DW$76	.dwtag  DW_TAG_formal_parameter
	.dwattr $C$DW$76, DW_AT_name("pcName")
	.dwattr $C$DW$76, DW_AT_TI_symbol_name("pcName")
	.dwattr $C$DW$76, DW_AT_type(*$C$DW$T$82)
	.dwattr $C$DW$76, DW_AT_location[DW_OP_reg1]

$C$DW$77	.dwtag  DW_TAG_formal_parameter
	.dwattr $C$DW$77, DW_AT_name("ulStackDepth")
	.dwattr $C$DW$77, DW_AT_TI_symbol_name("ulStackDepth")
	.dwattr $C$DW$77, DW_AT_type(*$C$DW$T$127)
	.dwattr $C$DW$77, DW_AT_location[DW_OP_reg2]

$C$DW$78	.dwtag  DW_TAG_formal_parameter
	.dwattr $C$DW$78, DW_AT_name("pvParameters")
	.dwattr $C$DW$78, DW_AT_TI_symbol_name("pvParameters")
	.dwattr $C$DW$78, DW_AT_type(*$C$DW$T$110)
	.dwattr $C$DW$78, DW_AT_location[DW_OP_reg3]

$C$DW$79	.dwtag  DW_TAG_formal_parameter
	.dwattr $C$DW$79, DW_AT_name("uxPriority")
	.dwattr $C$DW$79, DW_AT_TI_symbol_name("uxPriority")
	.dwattr $C$DW$79, DW_AT_type(*$C$DW$T$26)
	.dwattr $C$DW$79, DW_AT_location[DW_OP_breg13 32]

$C$DW$80	.dwtag  DW_TAG_formal_parameter
	.dwattr $C$DW$80, DW_AT_name("pxCreatedTask")
	.dwattr $C$DW$80, DW_AT_TI_symbol_name("pxCreatedTask")
	.dwattr $C$DW$80, DW_AT_type(*$C$DW$T$129)
	.dwattr $C$DW$80, DW_AT_location[DW_OP_breg13 36]

$C$DW$81	.dwtag  DW_TAG_formal_parameter
	.dwattr $C$DW$81, DW_AT_name("pxNewTCB")
	.dwattr $C$DW$81, DW_AT_TI_symbol_name("pxNewTCB")
	.dwattr $C$DW$81, DW_AT_type(*$C$DW$T$132)
	.dwattr $C$DW$81, DW_AT_location[DW_OP_breg13 40]

$C$DW$82	.dwtag  DW_TAG_formal_parameter
	.dwattr $C$DW$82, DW_AT_name("xRegions")
	.dwattr $C$DW$82, DW_AT_TI_symbol_name("xRegions")
	.dwattr $C$DW$82, DW_AT_type(*$C$DW$T$135)
	.dwattr $C$DW$82, DW_AT_location[DW_OP_breg13 44]


;*****************************************************************************
;* FUNCTION NAME: prvInitialiseNewTask                                       *
;*                                                                           *
;*   Regs Modified     : A1,A2,A3,A4,V9,SP,LR,SR,D0,D0_hi,D1,D1_hi,D2,D2_hi, *
;*                           D3,D3_hi,D4,D4_hi,D5,D5_hi,D6,D6_hi,D7,D7_hi,   *
;*                           FPEXC,FPSCR                                     *
;*   Regs Used         : A1,A2,A3,A4,V9,SP,LR,SR,D0,D0_hi,D1,D1_hi,D2,D2_hi, *
;*                           D3,D3_hi,D4,D4_hi,D5,D5_hi,D6,D6_hi,D7,D7_hi,   *
;*                           FPEXC,FPSCR                                     *
;*   Local Frame Size  : 0 Args + 24 Auto + 4 Save = 28 byte                 *
;*****************************************************************************
prvInitialiseNewTask:
;* --------------------------------------------------------------------------*
	.dwcfi	cfa_offset, 0
        PUSH      {LR}                  ; [DPU_V7M3_PIPE] 
	.dwcfi	cfa_offset, 4
	.dwcfi	save_reg_to_mem, 14, -4
        SUB       SP, SP, #28           ; [DPU_V7M3_PIPE] 
	.dwcfi	cfa_offset, 32
$C$DW$83	.dwtag  DW_TAG_variable
	.dwattr $C$DW$83, DW_AT_name("pxTaskCode")
	.dwattr $C$DW$83, DW_AT_TI_symbol_name("pxTaskCode")
	.dwattr $C$DW$83, DW_AT_type(*$C$DW$T$78)
	.dwattr $C$DW$83, DW_AT_location[DW_OP_breg13 0]

$C$DW$84	.dwtag  DW_TAG_variable
	.dwattr $C$DW$84, DW_AT_name("pcName")
	.dwattr $C$DW$84, DW_AT_TI_symbol_name("pcName")
	.dwattr $C$DW$84, DW_AT_type(*$C$DW$T$82)
	.dwattr $C$DW$84, DW_AT_location[DW_OP_breg13 4]

$C$DW$85	.dwtag  DW_TAG_variable
	.dwattr $C$DW$85, DW_AT_name("ulStackDepth")
	.dwattr $C$DW$85, DW_AT_TI_symbol_name("ulStackDepth")
	.dwattr $C$DW$85, DW_AT_type(*$C$DW$T$127)
	.dwattr $C$DW$85, DW_AT_location[DW_OP_breg13 8]

$C$DW$86	.dwtag  DW_TAG_variable
	.dwattr $C$DW$86, DW_AT_name("pvParameters")
	.dwattr $C$DW$86, DW_AT_TI_symbol_name("pvParameters")
	.dwattr $C$DW$86, DW_AT_type(*$C$DW$T$110)
	.dwattr $C$DW$86, DW_AT_location[DW_OP_breg13 12]

$C$DW$87	.dwtag  DW_TAG_variable
	.dwattr $C$DW$87, DW_AT_name("pxTopOfStack")
	.dwattr $C$DW$87, DW_AT_TI_symbol_name("pxTopOfStack")
	.dwattr $C$DW$87, DW_AT_type(*$C$DW$T$40)
	.dwattr $C$DW$87, DW_AT_location[DW_OP_breg13 16]

$C$DW$88	.dwtag  DW_TAG_variable
	.dwattr $C$DW$88, DW_AT_name("x")
	.dwattr $C$DW$88, DW_AT_TI_symbol_name("x")
	.dwattr $C$DW$88, DW_AT_type(*$C$DW$T$26)
	.dwattr $C$DW$88, DW_AT_location[DW_OP_breg13 20]

        STR       A4, [SP, #12]         ; [DPU_V7M3_PIPE] |846| 
        STR       A3, [SP, #8]          ; [DPU_V7M3_PIPE] |846| 
        STR       A2, [SP, #4]          ; [DPU_V7M3_PIPE] |846| 
        STR       A1, [SP, #0]          ; [DPU_V7M3_PIPE] |846| 
	.dwpsn	file "../Tivaware_Dep/third_party/FreeRTOS/Source/tasks.c",line 870,column 3,is_stmt,isa 1
        LDR       A1, [SP, #40]         ; [DPU_V7M3_PIPE] |870| 
        LDR       A2, [SP, #8]          ; [DPU_V7M3_PIPE] |870| 
        LDR       A1, [A1, #48]         ; [DPU_V7M3_PIPE] |870| 
        LSLS      A3, A2, #2            ; [DPU_V7M3_PIPE] |870| 
        MOVS      A2, #165              ; [DPU_V7M3_PIPE] |870| 
$C$DW$89	.dwtag  DW_TAG_TI_branch
	.dwattr $C$DW$89, DW_AT_low_pc(0x00)
	.dwattr $C$DW$89, DW_AT_name("memset")
	.dwattr $C$DW$89, DW_AT_TI_call

        BL        memset                ; [DPU_V7M3_PIPE] |870| 
        ; CALL OCCURS {memset }          ; [] |870| 
	.dwpsn	file "../Tivaware_Dep/third_party/FreeRTOS/Source/tasks.c",line 880,column 3,is_stmt,isa 1
        LDR       A2, [SP, #40]         ; [DPU_V7M3_PIPE] |880| 
        LDR       A1, [SP, #8]          ; [DPU_V7M3_PIPE] |880| 
        LDR       A2, [A2, #48]         ; [DPU_V7M3_PIPE] |880| 
        SUBS      A1, A1, #1            ; [DPU_V7M3_PIPE] |880| 
        ADD       A2, A2, A1, LSL #2    ; [DPU_V7M3_PIPE] |880| 
        STR       A2, [SP, #16]         ; [DPU_V7M3_PIPE] |880| 
	.dwpsn	file "../Tivaware_Dep/third_party/FreeRTOS/Source/tasks.c",line 881,column 3,is_stmt,isa 1
        LDR       A1, [SP, #16]         ; [DPU_V7M3_PIPE] |881| 
        BIC       A1, A1, #7            ; [DPU_V7M3_PIPE] |881| 
        STR       A1, [SP, #16]         ; [DPU_V7M3_PIPE] |881| 
	.dwpsn	file "../Tivaware_Dep/third_party/FreeRTOS/Source/tasks.c",line 908,column 7,is_stmt,isa 1
        MOVS      A1, #0                ; [DPU_V7M3_PIPE] |908| 
        STR       A1, [SP, #20]         ; [DPU_V7M3_PIPE] |908| 
	.dwpsn	file "../Tivaware_Dep/third_party/FreeRTOS/Source/tasks.c",line 908,column 30,is_stmt,isa 1
        LDR       A1, [SP, #20]         ; [DPU_V7M3_PIPE] |908| 
        CMP       A1, #20               ; [DPU_V7M3_PIPE] |908| 
        BCS       ||$C$L8||             ; [DPU_V7M3_PIPE] |908| 
        ; BRANCHCC OCCURS {||$C$L8||}    ; [] |908| 
;* --------------------------------------------------------------------------*
;*   BEGIN LOOP ||$C$L6||
;*
;*   Loop source line                : 908
;*   Loop closing brace source line  : 923
;*   Known Minimum Trip Count        : 1
;*   Known Maximum Trip Count        : 4294967295
;*   Known Max Trip Count Factor     : 1
;* --------------------------------------------------------------------------*
||$C$L6||:    
	.dwpsn	file "../Tivaware_Dep/third_party/FreeRTOS/Source/tasks.c",line 910,column 3,is_stmt,isa 1
        LDR       A2, [SP, #4]          ; [DPU_V7M3_PIPE] |910| 
        LDR       A4, [SP, #20]         ; [DPU_V7M3_PIPE] |910| 
        LDR       A3, [SP, #20]         ; [DPU_V7M3_PIPE] |910| 
        LDR       A1, [SP, #40]         ; [DPU_V7M3_PIPE] |910| 
        LDRB      A2, [A4, +A2]         ; [DPU_V7M3_PIPE] |910| 
        ADDS      A1, A1, A3            ; [DPU_V7M3_PIPE] |910| 
        STRB      A2, [A1, #52]         ; [DPU_V7M3_PIPE] |910| 
	.dwpsn	file "../Tivaware_Dep/third_party/FreeRTOS/Source/tasks.c",line 915,column 3,is_stmt,isa 1
        LDR       A1, [SP, #4]          ; [DPU_V7M3_PIPE] |915| 
        LDR       A2, [SP, #20]         ; [DPU_V7M3_PIPE] |915| 
        LDRB      A1, [A2, +A1]         ; [DPU_V7M3_PIPE] |915| 
        CBNZ      A1, ||$C$L7||         ; [] 
        ; BRANCHCC OCCURS {||$C$L7||}    ; [] |915| 
;* --------------------------------------------------------------------------*
	.dwpsn	file "../Tivaware_Dep/third_party/FreeRTOS/Source/tasks.c",line 917,column 4,is_stmt,isa 1
        B         ||$C$L8||             ; [DPU_V7M3_PIPE] |917| 
        ; BRANCH OCCURS {||$C$L8||}      ; [] |917| 
;* --------------------------------------------------------------------------*
;* --------------------------------------------------------------------------*
||$C$L7||:    
	.dwpsn	file "../Tivaware_Dep/third_party/FreeRTOS/Source/tasks.c",line 908,column 75,is_stmt,isa 1
        LDR       A1, [SP, #20]         ; [DPU_V7M3_PIPE] |908| 
        ADDS      A1, A1, #1            ; [DPU_V7M3_PIPE] |908| 
        STR       A1, [SP, #20]         ; [DPU_V7M3_PIPE] |908| 
	.dwpsn	file "../Tivaware_Dep/third_party/FreeRTOS/Source/tasks.c",line 908,column 30,is_stmt,isa 1
        LDR       A1, [SP, #20]         ; [DPU_V7M3_PIPE] |908| 
        CMP       A1, #20               ; [DPU_V7M3_PIPE] |908| 
        BCC       ||$C$L6||             ; [DPU_V7M3_PIPE] |908| 
        ; BRANCHCC OCCURS {||$C$L6||}    ; [] |908| 
;* --------------------------------------------------------------------------*
||$C$L8||:    
	.dwpsn	file "../Tivaware_Dep/third_party/FreeRTOS/Source/tasks.c",line 927,column 2,is_stmt,isa 1
        LDR       A2, [SP, #40]         ; [DPU_V7M3_PIPE] |927| 
        MOVS      A1, #0                ; [DPU_V7M3_PIPE] |927| 
        STRB      A1, [A2, #71]         ; [DPU_V7M3_PIPE] |927| 
	.dwpsn	file "../Tivaware_Dep/third_party/FreeRTOS/Source/tasks.c",line 931,column 2,is_stmt,isa 1
        LDR       A1, [SP, #32]         ; [DPU_V7M3_PIPE] |931| 
        CMP       A1, #16               ; [DPU_V7M3_PIPE] |931| 
        BCC       ||$C$L9||             ; [DPU_V7M3_PIPE] |931| 
        ; BRANCHCC OCCURS {||$C$L9||}    ; [] |931| 
;* --------------------------------------------------------------------------*
	.dwpsn	file "../Tivaware_Dep/third_party/FreeRTOS/Source/tasks.c",line 933,column 3,is_stmt,isa 1
        MOVS      A1, #15               ; [DPU_V7M3_PIPE] |933| 
        STR       A1, [SP, #32]         ; [DPU_V7M3_PIPE] |933| 
	.dwpsn	file "../Tivaware_Dep/third_party/FreeRTOS/Source/tasks.c",line 934,column 2,is_stmt,isa 1
;* --------------------------------------------------------------------------*
||$C$L9||:    
	.dwpsn	file "../Tivaware_Dep/third_party/FreeRTOS/Source/tasks.c",line 940,column 2,is_stmt,isa 1
        LDR       A1, [SP, #32]         ; [DPU_V7M3_PIPE] |940| 
        LDR       A2, [SP, #40]         ; [DPU_V7M3_PIPE] |940| 
        STR       A1, [A2, #44]         ; [DPU_V7M3_PIPE] |940| 
	.dwpsn	file "../Tivaware_Dep/third_party/FreeRTOS/Source/tasks.c",line 943,column 3,is_stmt,isa 1
        LDR       A1, [SP, #32]         ; [DPU_V7M3_PIPE] |943| 
        LDR       A2, [SP, #40]         ; [DPU_V7M3_PIPE] |943| 
        STR       A1, [A2, #80]         ; [DPU_V7M3_PIPE] |943| 
	.dwpsn	file "../Tivaware_Dep/third_party/FreeRTOS/Source/tasks.c",line 944,column 3,is_stmt,isa 1
        LDR       A1, [SP, #40]         ; [DPU_V7M3_PIPE] |944| 
        MOVS      A2, #0                ; [DPU_V7M3_PIPE] |944| 
        STR       A2, [A1, #84]         ; [DPU_V7M3_PIPE] |944| 
	.dwpsn	file "../Tivaware_Dep/third_party/FreeRTOS/Source/tasks.c",line 948,column 2,is_stmt,isa 1
        LDR       A1, [SP, #40]         ; [DPU_V7M3_PIPE] |948| 
        ADDS      A1, A1, #4            ; [DPU_V7M3_PIPE] |948| 
$C$DW$90	.dwtag  DW_TAG_TI_branch
	.dwattr $C$DW$90, DW_AT_low_pc(0x00)
	.dwattr $C$DW$90, DW_AT_name("vListInitialiseItem")
	.dwattr $C$DW$90, DW_AT_TI_call

        BL        vListInitialiseItem   ; [DPU_V7M3_PIPE] |948| 
        ; CALL OCCURS {vListInitialiseItem }  ; [] |948| 
	.dwpsn	file "../Tivaware_Dep/third_party/FreeRTOS/Source/tasks.c",line 949,column 2,is_stmt,isa 1
        LDR       A1, [SP, #40]         ; [DPU_V7M3_PIPE] |949| 
        ADDS      A1, A1, #24           ; [DPU_V7M3_PIPE] |949| 
$C$DW$91	.dwtag  DW_TAG_TI_branch
	.dwattr $C$DW$91, DW_AT_low_pc(0x00)
	.dwattr $C$DW$91, DW_AT_name("vListInitialiseItem")
	.dwattr $C$DW$91, DW_AT_TI_call

        BL        vListInitialiseItem   ; [DPU_V7M3_PIPE] |949| 
        ; CALL OCCURS {vListInitialiseItem }  ; [] |949| 
	.dwpsn	file "../Tivaware_Dep/third_party/FreeRTOS/Source/tasks.c",line 953,column 2,is_stmt,isa 1
        LDR       A1, [SP, #40]         ; [DPU_V7M3_PIPE] |953| 
        LDR       A2, [SP, #40]         ; [DPU_V7M3_PIPE] |953| 
        STR       A1, [A2, #16]         ; [DPU_V7M3_PIPE] |953| 
	.dwpsn	file "../Tivaware_Dep/third_party/FreeRTOS/Source/tasks.c",line 956,column 2,is_stmt,isa 1
        LDR       A1, [SP, #32]         ; [DPU_V7M3_PIPE] |956| 
        LDR       A2, [SP, #40]         ; [DPU_V7M3_PIPE] |956| 
        RSB       A1, A1, #16           ; [DPU_V7M3_PIPE] |956| 
        STR       A1, [A2, #24]         ; [DPU_V7M3_PIPE] |956| 
	.dwpsn	file "../Tivaware_Dep/third_party/FreeRTOS/Source/tasks.c",line 957,column 2,is_stmt,isa 1
        LDR       A1, [SP, #40]         ; [DPU_V7M3_PIPE] |957| 
        LDR       A2, [SP, #40]         ; [DPU_V7M3_PIPE] |957| 
        STR       A1, [A2, #36]         ; [DPU_V7M3_PIPE] |957| 
	.dwpsn	file "../Tivaware_Dep/third_party/FreeRTOS/Source/tasks.c",line 984,column 3,is_stmt,isa 1
	.dwpsn	file "../Tivaware_Dep/third_party/FreeRTOS/Source/tasks.c",line 999,column 3,is_stmt,isa 1
        LDR       A1, [SP, #40]         ; [DPU_V7M3_PIPE] |999| 
        MOVS      A2, #0                ; [DPU_V7M3_PIPE] |999| 
        STR       A2, [A1, #88]         ; [DPU_V7M3_PIPE] |999| 
	.dwpsn	file "../Tivaware_Dep/third_party/FreeRTOS/Source/tasks.c",line 1000,column 3,is_stmt,isa 1
        LDR       A2, [SP, #40]         ; [DPU_V7M3_PIPE] |1000| 
        MOVS      A1, #0                ; [DPU_V7M3_PIPE] |1000| 
        STRB      A1, [A2, #92]         ; [DPU_V7M3_PIPE] |1000| 
	.dwpsn	file "../Tivaware_Dep/third_party/FreeRTOS/Source/tasks.c",line 1027,column 3,is_stmt,isa 1
        LDR       A1, [SP, #16]         ; [DPU_V7M3_PIPE] |1027| 
        LDR       A3, [SP, #12]         ; [DPU_V7M3_PIPE] |1027| 
        LDR       A2, [SP, #0]          ; [DPU_V7M3_PIPE] |1027| 
$C$DW$92	.dwtag  DW_TAG_TI_branch
	.dwattr $C$DW$92, DW_AT_low_pc(0x00)
	.dwattr $C$DW$92, DW_AT_name("pxPortInitialiseStack")
	.dwattr $C$DW$92, DW_AT_TI_call

        BL        pxPortInitialiseStack ; [DPU_V7M3_PIPE] |1027| 
        ; CALL OCCURS {pxPortInitialiseStack }  ; [] |1027| 
        LDR       A2, [SP, #40]         ; [DPU_V7M3_PIPE] |1027| 
        STR       A1, [A2, #0]          ; [DPU_V7M3_PIPE] |1027| 
	.dwpsn	file "../Tivaware_Dep/third_party/FreeRTOS/Source/tasks.c",line 1031,column 2,is_stmt,isa 1
        LDR       A1, [SP, #36]         ; [DPU_V7M3_PIPE] |1031| 
        CBZ       A1, ||$C$L10||        ; [] 
        ; BRANCHCC OCCURS {||$C$L10||}   ; [] |1031| 
;* --------------------------------------------------------------------------*
	.dwpsn	file "../Tivaware_Dep/third_party/FreeRTOS/Source/tasks.c",line 1035,column 3,is_stmt,isa 1
        LDR       A1, [SP, #40]         ; [DPU_V7M3_PIPE] |1035| 
        LDR       A2, [SP, #36]         ; [DPU_V7M3_PIPE] |1035| 
        STR       A1, [A2, #0]          ; [DPU_V7M3_PIPE] |1035| 
	.dwpsn	file "../Tivaware_Dep/third_party/FreeRTOS/Source/tasks.c",line 1036,column 2,is_stmt,isa 1
        B         ||$C$L10||            ; [DPU_V7M3_PIPE] |1036| 
        ; BRANCH OCCURS {||$C$L10||}     ; [] |1036| 
;* --------------------------------------------------------------------------*
;* --------------------------------------------------------------------------*
||$C$L10||:    
        ADD       SP, SP, #28           ; [DPU_V7M3_PIPE] 
	.dwcfi	cfa_offset, 4
$C$DW$93	.dwtag  DW_TAG_TI_branch
	.dwattr $C$DW$93, DW_AT_low_pc(0x00)
	.dwattr $C$DW$93, DW_AT_TI_return

        POP       {PC}                  ; [DPU_V7M3_PIPE] 
	.dwcfi	cfa_offset, 0
        ; BRANCH OCCURS                  ; [] 
	.dwattr $C$DW$74, DW_AT_TI_end_file("../Tivaware_Dep/third_party/FreeRTOS/Source/tasks.c")
	.dwattr $C$DW$74, DW_AT_TI_end_line(0x411)
	.dwattr $C$DW$74, DW_AT_TI_end_column(0x01)
	.dwendentry
	.dwendtag $C$DW$74

	.sect	".text:prvAddNewTaskToReadyList"
	.clink
	.thumbfunc prvAddNewTaskToReadyList
	.thumb

$C$DW$94	.dwtag  DW_TAG_subprogram
	.dwattr $C$DW$94, DW_AT_name("prvAddNewTaskToReadyList")
	.dwattr $C$DW$94, DW_AT_low_pc(prvAddNewTaskToReadyList)
	.dwattr $C$DW$94, DW_AT_high_pc(0x00)
	.dwattr $C$DW$94, DW_AT_TI_symbol_name("prvAddNewTaskToReadyList")
	.dwattr $C$DW$94, DW_AT_TI_begin_file("../Tivaware_Dep/third_party/FreeRTOS/Source/tasks.c")
	.dwattr $C$DW$94, DW_AT_TI_begin_line(0x414)
	.dwattr $C$DW$94, DW_AT_TI_begin_column(0x0d)
	.dwattr $C$DW$94, DW_AT_decl_file("../Tivaware_Dep/third_party/FreeRTOS/Source/tasks.c")
	.dwattr $C$DW$94, DW_AT_decl_line(0x414)
	.dwattr $C$DW$94, DW_AT_decl_column(0x0d)
	.dwattr $C$DW$94, DW_AT_TI_max_frame_size(0x10)
	.dwpsn	file "../Tivaware_Dep/third_party/FreeRTOS/Source/tasks.c",line 1045,column 1,is_stmt,address prvAddNewTaskToReadyList,isa 1

	.dwfde $C$DW$CIE, prvAddNewTaskToReadyList
$C$DW$95	.dwtag  DW_TAG_formal_parameter
	.dwattr $C$DW$95, DW_AT_name("pxNewTCB")
	.dwattr $C$DW$95, DW_AT_TI_symbol_name("pxNewTCB")
	.dwattr $C$DW$95, DW_AT_type(*$C$DW$T$132)
	.dwattr $C$DW$95, DW_AT_location[DW_OP_reg0]


;*****************************************************************************
;* FUNCTION NAME: prvAddNewTaskToReadyList                                   *
;*                                                                           *
;*   Regs Modified     : A1,A2,A3,A4,V1,V9,SP,LR,SR,D0,D0_hi,D1,D1_hi,D2,    *
;*                           D2_hi,D3,D3_hi,D4,D4_hi,D5,D5_hi,D6,D6_hi,D7,   *
;*                           D7_hi,FPEXC,FPSCR                               *
;*   Regs Used         : A1,A2,A3,A4,V1,V9,SP,LR,SR,D0,D0_hi,D1,D1_hi,D2,    *
;*                           D2_hi,D3,D3_hi,D4,D4_hi,D5,D5_hi,D6,D6_hi,D7,   *
;*                           D7_hi,FPEXC,FPSCR                               *
;*   Local Frame Size  : 0 Args + 4 Auto + 8 Save = 12 byte                  *
;*****************************************************************************
prvAddNewTaskToReadyList:
;* --------------------------------------------------------------------------*
	.dwcfi	cfa_offset, 0
        PUSH      {A3, A4, V1, LR}      ; [DPU_V7M3_PIPE] 
	.dwcfi	cfa_offset, 16
	.dwcfi	save_reg_to_mem, 14, -4
	.dwcfi	save_reg_to_mem, 4, -8
	.dwcfi	save_reg_to_mem, 3, -12
	.dwcfi	save_reg_to_mem, 2, -16
$C$DW$96	.dwtag  DW_TAG_variable
	.dwattr $C$DW$96, DW_AT_name("pxNewTCB")
	.dwattr $C$DW$96, DW_AT_TI_symbol_name("pxNewTCB")
	.dwattr $C$DW$96, DW_AT_type(*$C$DW$T$132)
	.dwattr $C$DW$96, DW_AT_location[DW_OP_breg13 0]

        STR       A1, [SP, #0]          ; [DPU_V7M3_PIPE] |1045| 
	.dwpsn	file "../Tivaware_Dep/third_party/FreeRTOS/Source/tasks.c",line 1048,column 2,is_stmt,isa 1
$C$DW$97	.dwtag  DW_TAG_TI_branch
	.dwattr $C$DW$97, DW_AT_low_pc(0x00)
	.dwattr $C$DW$97, DW_AT_name("vPortEnterCritical")
	.dwattr $C$DW$97, DW_AT_TI_call

        BL        vPortEnterCritical    ; [DPU_V7M3_PIPE] |1048| 
        ; CALL OCCURS {vPortEnterCritical }  ; [] |1048| 
	.dwpsn	file "../Tivaware_Dep/third_party/FreeRTOS/Source/tasks.c",line 1050,column 3,is_stmt,isa 1
        LDR       A2, $C$CON1           ; [DPU_V7M3_PIPE] |1050| 
        LDR       A1, [A2, #0]          ; [DPU_V7M3_PIPE] |1050| 
        ADDS      A1, A1, #1            ; [DPU_V7M3_PIPE] |1050| 
        STR       A1, [A2, #0]          ; [DPU_V7M3_PIPE] |1050| 
	.dwpsn	file "../Tivaware_Dep/third_party/FreeRTOS/Source/tasks.c",line 1051,column 3,is_stmt,isa 1
        LDR       A1, $C$CON2           ; [DPU_V7M3_PIPE] |1051| 
        LDR       A1, [A1, #0]          ; [DPU_V7M3_PIPE] |1051| 
        CBNZ      A1, ||$C$L11||        ; [] 
        ; BRANCHCC OCCURS {||$C$L11||}   ; [] |1051| 
;* --------------------------------------------------------------------------*
	.dwpsn	file "../Tivaware_Dep/third_party/FreeRTOS/Source/tasks.c",line 1055,column 4,is_stmt,isa 1
        LDR       A1, [SP, #0]          ; [DPU_V7M3_PIPE] |1055| 
        LDR       A2, $C$CON2           ; [DPU_V7M3_PIPE] |1055| 
        STR       A1, [A2, #0]          ; [DPU_V7M3_PIPE] |1055| 
	.dwpsn	file "../Tivaware_Dep/third_party/FreeRTOS/Source/tasks.c",line 1057,column 4,is_stmt,isa 1
        LDR       A1, $C$CON1           ; [DPU_V7M3_PIPE] |1057| 
        LDR       A1, [A1, #0]          ; [DPU_V7M3_PIPE] |1057| 
        CMP       A1, #1                ; [DPU_V7M3_PIPE] |1057| 
        BNE       ||$C$L12||            ; [DPU_V7M3_PIPE] |1057| 
        ; BRANCHCC OCCURS {||$C$L12||}   ; [] |1057| 
;* --------------------------------------------------------------------------*
	.dwpsn	file "../Tivaware_Dep/third_party/FreeRTOS/Source/tasks.c",line 1062,column 5,is_stmt,isa 1
$C$DW$98	.dwtag  DW_TAG_TI_branch
	.dwattr $C$DW$98, DW_AT_low_pc(0x00)
	.dwattr $C$DW$98, DW_AT_name("prvInitialiseTaskLists")
	.dwattr $C$DW$98, DW_AT_TI_call

        BL        prvInitialiseTaskLists ; [DPU_V7M3_PIPE] |1062| 
        ; CALL OCCURS {prvInitialiseTaskLists }  ; [] |1062| 
	.dwpsn	file "../Tivaware_Dep/third_party/FreeRTOS/Source/tasks.c",line 1063,column 4,is_stmt,isa 1
        B         ||$C$L12||            ; [DPU_V7M3_PIPE] |1063| 
        ; BRANCH OCCURS {||$C$L12||}     ; [] |1063| 
;* --------------------------------------------------------------------------*
;* --------------------------------------------------------------------------*
||$C$L11||:    
	.dwpsn	file "../Tivaware_Dep/third_party/FreeRTOS/Source/tasks.c",line 1074,column 4,is_stmt,isa 1
        LDR       A1, $C$CON3           ; [DPU_V7M3_PIPE] |1074| 
        LDR       A1, [A1, #0]          ; [DPU_V7M3_PIPE] |1074| 
        CBNZ      A1, ||$C$L12||        ; [] 
        ; BRANCHCC OCCURS {||$C$L12||}   ; [] |1074| 
;* --------------------------------------------------------------------------*
	.dwpsn	file "../Tivaware_Dep/third_party/FreeRTOS/Source/tasks.c",line 1076,column 5,is_stmt,isa 1
        LDR       A2, $C$CON2           ; [DPU_V7M3_PIPE] |1076| 
        LDR       A1, [SP, #0]          ; [DPU_V7M3_PIPE] |1076| 
        LDR       A2, [A2, #0]          ; [DPU_V7M3_PIPE] |1076| 
        LDR       A1, [A1, #44]         ; [DPU_V7M3_PIPE] |1076| 
        LDR       A2, [A2, #44]         ; [DPU_V7M3_PIPE] |1076| 
        CMP       A1, A2                ; [DPU_V7M3_PIPE] |1076| 
        BCC       ||$C$L12||            ; [DPU_V7M3_PIPE] |1076| 
        ; BRANCHCC OCCURS {||$C$L12||}   ; [] |1076| 
;* --------------------------------------------------------------------------*
	.dwpsn	file "../Tivaware_Dep/third_party/FreeRTOS/Source/tasks.c",line 1078,column 6,is_stmt,isa 1
        LDR       A1, [SP, #0]          ; [DPU_V7M3_PIPE] |1078| 
        LDR       A2, $C$CON2           ; [DPU_V7M3_PIPE] |1078| 
        STR       A1, [A2, #0]          ; [DPU_V7M3_PIPE] |1078| 
	.dwpsn	file "../Tivaware_Dep/third_party/FreeRTOS/Source/tasks.c",line 1079,column 5,is_stmt,isa 1
        B         ||$C$L12||            ; [DPU_V7M3_PIPE] |1079| 
        ; BRANCH OCCURS {||$C$L12||}     ; [] |1079| 
;* --------------------------------------------------------------------------*
;* --------------------------------------------------------------------------*
||$C$L12||:    
	.dwpsn	file "../Tivaware_Dep/third_party/FreeRTOS/Source/tasks.c",line 1091,column 3,is_stmt,isa 1
        LDR       A2, $C$CON4           ; [DPU_V7M3_PIPE] |1091| 
        LDR       A1, [A2, #0]          ; [DPU_V7M3_PIPE] |1091| 
        ADDS      A1, A1, #1            ; [DPU_V7M3_PIPE] |1091| 
        STR       A1, [A2, #0]          ; [DPU_V7M3_PIPE] |1091| 
	.dwpsn	file "../Tivaware_Dep/third_party/FreeRTOS/Source/tasks.c",line 1096,column 4,is_stmt,isa 1
        LDR       A1, $C$CON4           ; [DPU_V7M3_PIPE] |1096| 
        LDR       A2, [SP, #0]          ; [DPU_V7M3_PIPE] |1096| 
        LDR       A1, [A1, #0]          ; [DPU_V7M3_PIPE] |1096| 
        STR       A1, [A2, #72]         ; [DPU_V7M3_PIPE] |1096| 
	.dwpsn	file "../Tivaware_Dep/third_party/FreeRTOS/Source/tasks.c",line 1101,column 3,is_stmt,isa 1
        LDR       A3, $C$CON5           ; [DPU_V7M3_PIPE] |1101| 
        LDR       A1, [SP, #0]          ; [DPU_V7M3_PIPE] |1101| 
        LDR       A4, [A3, #0]          ; [DPU_V7M3_PIPE] |1101| 
        LDR       A2, [SP, #0]          ; [DPU_V7M3_PIPE] |1101| 
        LDR       V1, [A1, #44]         ; [DPU_V7M3_PIPE] |1101| 
        MOVS      A1, #1                ; [DPU_V7M3_PIPE] |1101| 
        LSLS      A1, A1, V1            ; [DPU_V7M3_PIPE] |1101| 
        ORRS      A1, A1, A4            ; [DPU_V7M3_PIPE] |1101| 
        STR       A1, [A3, #0]          ; [DPU_V7M3_PIPE] |1101| 
        LDR       A4, $C$CON6           ; [DPU_V7M3_PIPE] |1101| 
        LDR       A3, [A2, #44]         ; [DPU_V7M3_PIPE] |1101| 
        LDR       A2, [SP, #0]          ; [DPU_V7M3_PIPE] |1101| 
        LSLS      A1, A3, #2            ; [DPU_V7M3_PIPE] |1101| 
        ADD       A1, A1, A3, LSL #4    ; [DPU_V7M3_PIPE] |1101| 
        ADDS      A2, A2, #4            ; [DPU_V7M3_PIPE] |1101| 
        ADDS      A1, A1, A4            ; [DPU_V7M3_PIPE] |1101| 
$C$DW$99	.dwtag  DW_TAG_TI_branch
	.dwattr $C$DW$99, DW_AT_low_pc(0x00)
	.dwattr $C$DW$99, DW_AT_name("vListInsertEnd")
	.dwattr $C$DW$99, DW_AT_TI_call

        BL        vListInsertEnd        ; [DPU_V7M3_PIPE] |1101| 
        ; CALL OCCURS {vListInsertEnd }  ; [] |1101| 
	.dwpsn	file "../Tivaware_Dep/third_party/FreeRTOS/Source/tasks.c",line 1103,column 3,is_stmt,isa 1
	.dwpsn	file "../Tivaware_Dep/third_party/FreeRTOS/Source/tasks.c",line 1105,column 2,is_stmt,isa 1
$C$DW$100	.dwtag  DW_TAG_TI_branch
	.dwattr $C$DW$100, DW_AT_low_pc(0x00)
	.dwattr $C$DW$100, DW_AT_name("vPortExitCritical")
	.dwattr $C$DW$100, DW_AT_TI_call

        BL        vPortExitCritical     ; [DPU_V7M3_PIPE] |1105| 
        ; CALL OCCURS {vPortExitCritical }  ; [] |1105| 
	.dwpsn	file "../Tivaware_Dep/third_party/FreeRTOS/Source/tasks.c",line 1107,column 2,is_stmt,isa 1
        LDR       A1, $C$CON3           ; [DPU_V7M3_PIPE] |1107| 
        LDR       A1, [A1, #0]          ; [DPU_V7M3_PIPE] |1107| 
        CBZ       A1, ||$C$L13||        ; [] 
        ; BRANCHCC OCCURS {||$C$L13||}   ; [] |1107| 
;* --------------------------------------------------------------------------*
	.dwpsn	file "../Tivaware_Dep/third_party/FreeRTOS/Source/tasks.c",line 1111,column 3,is_stmt,isa 1
        LDR       A2, $C$CON2           ; [DPU_V7M3_PIPE] |1111| 
        LDR       A1, [SP, #0]          ; [DPU_V7M3_PIPE] |1111| 
        LDR       A2, [A2, #0]          ; [DPU_V7M3_PIPE] |1111| 
        LDR       A1, [A1, #44]         ; [DPU_V7M3_PIPE] |1111| 
        LDR       A2, [A2, #44]         ; [DPU_V7M3_PIPE] |1111| 
        CMP       A1, A2                ; [DPU_V7M3_PIPE] |1111| 
        BLS       ||$C$L13||            ; [DPU_V7M3_PIPE] |1111| 
        ; BRANCHCC OCCURS {||$C$L13||}   ; [] |1111| 
;* --------------------------------------------------------------------------*
	.dwpsn	file "../Tivaware_Dep/third_party/FreeRTOS/Source/tasks.c",line 1113,column 4,is_stmt,isa 1
        LDR       A2, $C$CON7           ; [DPU_V7M3_PIPE] |1113| 
        MOV       A1, #268435456        ; [DPU_V7M3_PIPE] |1113| 
        STR       A1, [A2, #0]          ; [DPU_V7M3_PIPE] |1113| 
	dsb
	isb
	.dwpsn	file "../Tivaware_Dep/third_party/FreeRTOS/Source/tasks.c",line 1114,column 3,is_stmt,isa 1
        B         ||$C$L13||            ; [DPU_V7M3_PIPE] |1114| 
        ; BRANCH OCCURS {||$C$L13||}     ; [] |1114| 
;* --------------------------------------------------------------------------*
;* --------------------------------------------------------------------------*
||$C$L13||:    
$C$DW$101	.dwtag  DW_TAG_TI_branch
	.dwattr $C$DW$101, DW_AT_low_pc(0x00)
	.dwattr $C$DW$101, DW_AT_TI_return

        POP       {A3, A4, V1, PC}      ; [DPU_V7M3_PIPE] 
	.dwcfi	cfa_offset, 0
	.dwcfi	restore_reg, 4
	.dwcfi	restore_reg, 3
	.dwcfi	restore_reg, 2
        ; BRANCH OCCURS                  ; [] 
	.dwattr $C$DW$94, DW_AT_TI_end_file("../Tivaware_Dep/third_party/FreeRTOS/Source/tasks.c")
	.dwattr $C$DW$94, DW_AT_TI_end_line(0x464)
	.dwattr $C$DW$94, DW_AT_TI_end_column(0x01)
	.dwendentry
	.dwendtag $C$DW$94

	.sect	".text:vTaskDelete"
	.clink
	.thumbfunc vTaskDelete
	.thumb
	.global	vTaskDelete

$C$DW$102	.dwtag  DW_TAG_subprogram
	.dwattr $C$DW$102, DW_AT_name("vTaskDelete")
	.dwattr $C$DW$102, DW_AT_low_pc(vTaskDelete)
	.dwattr $C$DW$102, DW_AT_high_pc(0x00)
	.dwattr $C$DW$102, DW_AT_TI_symbol_name("vTaskDelete")
	.dwattr $C$DW$102, DW_AT_external
	.dwattr $C$DW$102, DW_AT_TI_begin_file("../Tivaware_Dep/third_party/FreeRTOS/Source/tasks.c")
	.dwattr $C$DW$102, DW_AT_TI_begin_line(0x469)
	.dwattr $C$DW$102, DW_AT_TI_begin_column(0x07)
	.dwattr $C$DW$102, DW_AT_decl_file("../Tivaware_Dep/third_party/FreeRTOS/Source/tasks.c")
	.dwattr $C$DW$102, DW_AT_decl_line(0x469)
	.dwattr $C$DW$102, DW_AT_decl_column(0x07)
	.dwattr $C$DW$102, DW_AT_TI_max_frame_size(0x10)
	.dwpsn	file "../Tivaware_Dep/third_party/FreeRTOS/Source/tasks.c",line 1130,column 2,is_stmt,address vTaskDelete,isa 1

	.dwfde $C$DW$CIE, vTaskDelete
$C$DW$103	.dwtag  DW_TAG_formal_parameter
	.dwattr $C$DW$103, DW_AT_name("xTaskToDelete")
	.dwattr $C$DW$103, DW_AT_TI_symbol_name("xTaskToDelete")
	.dwattr $C$DW$103, DW_AT_type(*$C$DW$T$89)
	.dwattr $C$DW$103, DW_AT_location[DW_OP_reg0]


;*****************************************************************************
;* FUNCTION NAME: vTaskDelete                                                *
;*                                                                           *
;*   Regs Modified     : A1,A2,A3,A4,V9,SP,LR,SR,D0,D0_hi,D1,D1_hi,D2,D2_hi, *
;*                           D3,D3_hi,D4,D4_hi,D5,D5_hi,D6,D6_hi,D7,D7_hi,   *
;*                           FPEXC,FPSCR                                     *
;*   Regs Used         : A1,A2,A3,A4,V9,SP,LR,SR,D0,D0_hi,D1,D1_hi,D2,D2_hi, *
;*                           D3,D3_hi,D4,D4_hi,D5,D5_hi,D6,D6_hi,D7,D7_hi,   *
;*                           FPEXC,FPSCR                                     *
;*   Local Frame Size  : 0 Args + 8 Auto + 4 Save = 12 byte                  *
;*****************************************************************************
vTaskDelete:
;* --------------------------------------------------------------------------*
	.dwcfi	cfa_offset, 0
        PUSH      {A2, A3, A4, LR}      ; [DPU_V7M3_PIPE] 
	.dwcfi	cfa_offset, 16
	.dwcfi	save_reg_to_mem, 14, -4
	.dwcfi	save_reg_to_mem, 3, -8
	.dwcfi	save_reg_to_mem, 2, -12
	.dwcfi	save_reg_to_mem, 1, -16
$C$DW$104	.dwtag  DW_TAG_variable
	.dwattr $C$DW$104, DW_AT_name("xTaskToDelete")
	.dwattr $C$DW$104, DW_AT_TI_symbol_name("xTaskToDelete")
	.dwattr $C$DW$104, DW_AT_type(*$C$DW$T$89)
	.dwattr $C$DW$104, DW_AT_location[DW_OP_breg13 0]

$C$DW$105	.dwtag  DW_TAG_variable
	.dwattr $C$DW$105, DW_AT_name("pxTCB")
	.dwattr $C$DW$105, DW_AT_TI_symbol_name("pxTCB")
	.dwattr $C$DW$105, DW_AT_type(*$C$DW$T$132)
	.dwattr $C$DW$105, DW_AT_location[DW_OP_breg13 4]

        STR       A1, [SP, #0]          ; [DPU_V7M3_PIPE] |1130| 
	.dwpsn	file "../Tivaware_Dep/third_party/FreeRTOS/Source/tasks.c",line 1133,column 3,is_stmt,isa 1
$C$DW$106	.dwtag  DW_TAG_TI_branch
	.dwattr $C$DW$106, DW_AT_low_pc(0x00)
	.dwattr $C$DW$106, DW_AT_name("vPortEnterCritical")
	.dwattr $C$DW$106, DW_AT_TI_call

        BL        vPortEnterCritical    ; [DPU_V7M3_PIPE] |1133| 
        ; CALL OCCURS {vPortEnterCritical }  ; [] |1133| 
	.dwpsn	file "../Tivaware_Dep/third_party/FreeRTOS/Source/tasks.c",line 1137,column 4,is_stmt,isa 1
        LDR       A1, [SP, #0]          ; [DPU_V7M3_PIPE] |1137| 
        CBNZ      A1, ||$C$L14||        ; [] 
        ; BRANCHCC OCCURS {||$C$L14||}   ; [] |1137| 
;* --------------------------------------------------------------------------*
        LDR       A1, $C$CON8           ; [DPU_V7M3_PIPE] |1137| 
        LDR       A1, [A1, #0]          ; [DPU_V7M3_PIPE] |1137| 
        B         ||$C$L15||            ; [DPU_V7M3_PIPE] |1137| 
        ; BRANCH OCCURS {||$C$L15||}     ; [] |1137| 
;* --------------------------------------------------------------------------*
||$C$L14||:    
        LDR       A1, [SP, #0]          ; [DPU_V7M3_PIPE] |1137| 
;* --------------------------------------------------------------------------*
||$C$L15||:    
        STR       A1, [SP, #4]          ; [DPU_V7M3_PIPE] |1137| 
	.dwpsn	file "../Tivaware_Dep/third_party/FreeRTOS/Source/tasks.c",line 1140,column 4,is_stmt,isa 1
        LDR       A1, [SP, #4]          ; [DPU_V7M3_PIPE] |1140| 
        ADDS      A1, A1, #4            ; [DPU_V7M3_PIPE] |1140| 
$C$DW$107	.dwtag  DW_TAG_TI_branch
	.dwattr $C$DW$107, DW_AT_low_pc(0x00)
	.dwattr $C$DW$107, DW_AT_name("uxListRemove")
	.dwattr $C$DW$107, DW_AT_TI_call

        BL        uxListRemove          ; [DPU_V7M3_PIPE] |1140| 
        ; CALL OCCURS {uxListRemove }    ; [] |1140| 
        CBNZ      A1, ||$C$L16||        ; [] 
        ; BRANCHCC OCCURS {||$C$L16||}   ; [] |1140| 
;* --------------------------------------------------------------------------*
	.dwpsn	file "../Tivaware_Dep/third_party/FreeRTOS/Source/tasks.c",line 1142,column 5,is_stmt,isa 1
        LDR       A1, [SP, #4]          ; [DPU_V7M3_PIPE] |1142| 
        LDR       A2, $C$CON9           ; [DPU_V7M3_PIPE] |1142| 
        LDR       A3, [A1, #44]         ; [DPU_V7M3_PIPE] |1142| 
        LSLS      A1, A3, #2            ; [DPU_V7M3_PIPE] |1142| 
        ADD       A1, A1, A3, LSL #4    ; [DPU_V7M3_PIPE] |1142| 
        LDR       A1, [A2, +A1]         ; [DPU_V7M3_PIPE] |1142| 
        CBNZ      A1, ||$C$L16||        ; [] 
        ; BRANCHCC OCCURS {||$C$L16||}   ; [] |1142| 
;* --------------------------------------------------------------------------*
        LDR       A1, [SP, #4]          ; [DPU_V7M3_PIPE] |1142| 
        LDR       A3, $C$CON10          ; [DPU_V7M3_PIPE] |1142| 
        LDR       A4, [A1, #44]         ; [DPU_V7M3_PIPE] |1142| 
        LDR       A2, [A3, #0]          ; [DPU_V7M3_PIPE] |1142| 
        MOVS      A1, #1                ; [DPU_V7M3_PIPE] |1142| 
        LSLS      A1, A1, A4            ; [DPU_V7M3_PIPE] |1142| 
        BICS      A2, A2, A1            ; [DPU_V7M3_PIPE] |1142| 
        STR       A2, [A3, #0]          ; [DPU_V7M3_PIPE] |1142| 
	.dwpsn	file "../Tivaware_Dep/third_party/FreeRTOS/Source/tasks.c",line 1143,column 4,is_stmt,isa 1
;* --------------------------------------------------------------------------*
||$C$L16||:    
	.dwpsn	file "../Tivaware_Dep/third_party/FreeRTOS/Source/tasks.c",line 1150,column 4,is_stmt,isa 1
        LDR       A1, [SP, #4]          ; [DPU_V7M3_PIPE] |1150| 
        LDR       A1, [A1, #40]         ; [DPU_V7M3_PIPE] |1150| 
        CBZ       A1, ||$C$L17||        ; [] 
        ; BRANCHCC OCCURS {||$C$L17||}   ; [] |1150| 
;* --------------------------------------------------------------------------*
	.dwpsn	file "../Tivaware_Dep/third_party/FreeRTOS/Source/tasks.c",line 1152,column 5,is_stmt,isa 1
        LDR       A1, [SP, #4]          ; [DPU_V7M3_PIPE] |1152| 
        ADDS      A1, A1, #24           ; [DPU_V7M3_PIPE] |1152| 
$C$DW$108	.dwtag  DW_TAG_TI_branch
	.dwattr $C$DW$108, DW_AT_low_pc(0x00)
	.dwattr $C$DW$108, DW_AT_name("uxListRemove")
	.dwattr $C$DW$108, DW_AT_TI_call

        BL        uxListRemove          ; [DPU_V7M3_PIPE] |1152| 
        ; CALL OCCURS {uxListRemove }    ; [] |1152| 
	.dwpsn	file "../Tivaware_Dep/third_party/FreeRTOS/Source/tasks.c",line 1153,column 4,is_stmt,isa 1
;* --------------------------------------------------------------------------*
||$C$L17||:    
	.dwpsn	file "../Tivaware_Dep/third_party/FreeRTOS/Source/tasks.c",line 1163,column 4,is_stmt,isa 1
        LDR       A2, $C$CON11          ; [DPU_V7M3_PIPE] |1163| 
        LDR       A1, [A2, #0]          ; [DPU_V7M3_PIPE] |1163| 
        ADDS      A1, A1, #1            ; [DPU_V7M3_PIPE] |1163| 
        STR       A1, [A2, #0]          ; [DPU_V7M3_PIPE] |1163| 
	.dwpsn	file "../Tivaware_Dep/third_party/FreeRTOS/Source/tasks.c",line 1165,column 4,is_stmt,isa 1
        LDR       A1, $C$CON8           ; [DPU_V7M3_PIPE] |1165| 
        LDR       A2, [SP, #4]          ; [DPU_V7M3_PIPE] |1165| 
        LDR       A1, [A1, #0]          ; [DPU_V7M3_PIPE] |1165| 
        CMP       A1, A2                ; [DPU_V7M3_PIPE] |1165| 
        BNE       ||$C$L18||            ; [DPU_V7M3_PIPE] |1165| 
        ; BRANCHCC OCCURS {||$C$L18||}   ; [] |1165| 
;* --------------------------------------------------------------------------*
	.dwpsn	file "../Tivaware_Dep/third_party/FreeRTOS/Source/tasks.c",line 1172,column 5,is_stmt,isa 1
        LDR       A2, [SP, #4]          ; [DPU_V7M3_PIPE] |1172| 
        LDR       A1, $C$CON12          ; [DPU_V7M3_PIPE] |1172| 
        ADDS      A2, A2, #4            ; [DPU_V7M3_PIPE] |1172| 
$C$DW$109	.dwtag  DW_TAG_TI_branch
	.dwattr $C$DW$109, DW_AT_low_pc(0x00)
	.dwattr $C$DW$109, DW_AT_name("vListInsertEnd")
	.dwattr $C$DW$109, DW_AT_TI_call

        BL        vListInsertEnd        ; [DPU_V7M3_PIPE] |1172| 
        ; CALL OCCURS {vListInsertEnd }  ; [] |1172| 
	.dwpsn	file "../Tivaware_Dep/third_party/FreeRTOS/Source/tasks.c",line 1177,column 5,is_stmt,isa 1
        LDR       A2, $C$CON13          ; [DPU_V7M3_PIPE] |1177| 
        LDR       A1, [A2, #0]          ; [DPU_V7M3_PIPE] |1177| 
        ADDS      A1, A1, #1            ; [DPU_V7M3_PIPE] |1177| 
        STR       A1, [A2, #0]          ; [DPU_V7M3_PIPE] |1177| 
	.dwpsn	file "../Tivaware_Dep/third_party/FreeRTOS/Source/tasks.c",line 1185,column 4,is_stmt,isa 1
        B         ||$C$L19||            ; [DPU_V7M3_PIPE] |1185| 
        ; BRANCH OCCURS {||$C$L19||}     ; [] |1185| 
;* --------------------------------------------------------------------------*
||$C$L18||:    
	.dwpsn	file "../Tivaware_Dep/third_party/FreeRTOS/Source/tasks.c",line 1188,column 5,is_stmt,isa 1
        LDR       A2, $C$CON14          ; [DPU_V7M3_PIPE] |1188| 
        LDR       A1, [A2, #0]          ; [DPU_V7M3_PIPE] |1188| 
        SUBS      A1, A1, #1            ; [DPU_V7M3_PIPE] |1188| 
        STR       A1, [A2, #0]          ; [DPU_V7M3_PIPE] |1188| 
	.dwpsn	file "../Tivaware_Dep/third_party/FreeRTOS/Source/tasks.c",line 1189,column 5,is_stmt,isa 1
        LDR       A1, [SP, #4]          ; [DPU_V7M3_PIPE] |1189| 
$C$DW$110	.dwtag  DW_TAG_TI_branch
	.dwattr $C$DW$110, DW_AT_low_pc(0x00)
	.dwattr $C$DW$110, DW_AT_name("prvDeleteTCB")
	.dwattr $C$DW$110, DW_AT_TI_call

        BL        prvDeleteTCB          ; [DPU_V7M3_PIPE] |1189| 
        ; CALL OCCURS {prvDeleteTCB }    ; [] |1189| 
	.dwpsn	file "../Tivaware_Dep/third_party/FreeRTOS/Source/tasks.c",line 1193,column 5,is_stmt,isa 1
$C$DW$111	.dwtag  DW_TAG_TI_branch
	.dwattr $C$DW$111, DW_AT_low_pc(0x00)
	.dwattr $C$DW$111, DW_AT_name("prvResetNextTaskUnblockTime")
	.dwattr $C$DW$111, DW_AT_TI_call

        BL        prvResetNextTaskUnblockTime ; [DPU_V7M3_PIPE] |1193| 
        ; CALL OCCURS {prvResetNextTaskUnblockTime }  ; [] |1193| 
;* --------------------------------------------------------------------------*
||$C$L19||:    
	.dwpsn	file "../Tivaware_Dep/third_party/FreeRTOS/Source/tasks.c",line 1198,column 3,is_stmt,isa 1
$C$DW$112	.dwtag  DW_TAG_TI_branch
	.dwattr $C$DW$112, DW_AT_low_pc(0x00)
	.dwattr $C$DW$112, DW_AT_name("vPortExitCritical")
	.dwattr $C$DW$112, DW_AT_TI_call

        BL        vPortExitCritical     ; [DPU_V7M3_PIPE] |1198| 
        ; CALL OCCURS {vPortExitCritical }  ; [] |1198| 
	.dwpsn	file "../Tivaware_Dep/third_party/FreeRTOS/Source/tasks.c",line 1202,column 3,is_stmt,isa 1
        LDR       A1, $C$CON15          ; [DPU_V7M3_PIPE] |1202| 
        LDR       A1, [A1, #0]          ; [DPU_V7M3_PIPE] |1202| 
        CBZ       A1, ||$C$L20||        ; [] 
        ; BRANCHCC OCCURS {||$C$L20||}   ; [] |1202| 
;* --------------------------------------------------------------------------*
	.dwpsn	file "../Tivaware_Dep/third_party/FreeRTOS/Source/tasks.c",line 1204,column 4,is_stmt,isa 1
        LDR       A1, $C$CON8           ; [DPU_V7M3_PIPE] |1204| 
        LDR       A2, [SP, #4]          ; [DPU_V7M3_PIPE] |1204| 
        LDR       A1, [A1, #0]          ; [DPU_V7M3_PIPE] |1204| 
        CMP       A1, A2                ; [DPU_V7M3_PIPE] |1204| 
        BNE       ||$C$L20||            ; [DPU_V7M3_PIPE] |1204| 
        ; BRANCHCC OCCURS {||$C$L20||}   ; [] |1204| 
;* --------------------------------------------------------------------------*
	.dwpsn	file "../Tivaware_Dep/third_party/FreeRTOS/Source/tasks.c",line 1207,column 5,is_stmt,isa 1
        LDR       A2, $C$CON16          ; [DPU_V7M3_PIPE] |1207| 
        MOV       A1, #268435456        ; [DPU_V7M3_PIPE] |1207| 
        STR       A1, [A2, #0]          ; [DPU_V7M3_PIPE] |1207| 
	dsb
	isb
	.dwpsn	file "../Tivaware_Dep/third_party/FreeRTOS/Source/tasks.c",line 1208,column 4,is_stmt,isa 1
        B         ||$C$L20||            ; [DPU_V7M3_PIPE] |1208| 
        ; BRANCH OCCURS {||$C$L20||}     ; [] |1208| 
;* --------------------------------------------------------------------------*
;* --------------------------------------------------------------------------*
||$C$L20||:    
$C$DW$113	.dwtag  DW_TAG_TI_branch
	.dwattr $C$DW$113, DW_AT_low_pc(0x00)
	.dwattr $C$DW$113, DW_AT_TI_return

        POP       {A2, A3, A4, PC}      ; [DPU_V7M3_PIPE] 
	.dwcfi	cfa_offset, 0
	.dwcfi	restore_reg, 3
	.dwcfi	restore_reg, 2
	.dwcfi	restore_reg, 1
        ; BRANCH OCCURS                  ; [] 
	.dwattr $C$DW$102, DW_AT_TI_end_file("../Tivaware_Dep/third_party/FreeRTOS/Source/tasks.c")
	.dwattr $C$DW$102, DW_AT_TI_end_line(0x4be)
	.dwattr $C$DW$102, DW_AT_TI_end_column(0x02)
	.dwendentry
	.dwendtag $C$DW$102

	.sect	".text:vTaskDelayUntil"
	.clink
	.thumbfunc vTaskDelayUntil
	.thumb
	.global	vTaskDelayUntil

$C$DW$114	.dwtag  DW_TAG_subprogram
	.dwattr $C$DW$114, DW_AT_name("vTaskDelayUntil")
	.dwattr $C$DW$114, DW_AT_low_pc(vTaskDelayUntil)
	.dwattr $C$DW$114, DW_AT_high_pc(0x00)
	.dwattr $C$DW$114, DW_AT_TI_symbol_name("vTaskDelayUntil")
	.dwattr $C$DW$114, DW_AT_external
	.dwattr $C$DW$114, DW_AT_TI_begin_file("../Tivaware_Dep/third_party/FreeRTOS/Source/tasks.c")
	.dwattr $C$DW$114, DW_AT_TI_begin_line(0x4c5)
	.dwattr $C$DW$114, DW_AT_TI_begin_column(0x07)
	.dwattr $C$DW$114, DW_AT_decl_file("../Tivaware_Dep/third_party/FreeRTOS/Source/tasks.c")
	.dwattr $C$DW$114, DW_AT_decl_line(0x4c5)
	.dwattr $C$DW$114, DW_AT_decl_column(0x07)
	.dwattr $C$DW$114, DW_AT_TI_max_frame_size(0x20)
	.dwpsn	file "../Tivaware_Dep/third_party/FreeRTOS/Source/tasks.c",line 1222,column 2,is_stmt,address vTaskDelayUntil,isa 1

	.dwfde $C$DW$CIE, vTaskDelayUntil
$C$DW$115	.dwtag  DW_TAG_formal_parameter
	.dwattr $C$DW$115, DW_AT_name("pxPreviousWakeTime")
	.dwattr $C$DW$115, DW_AT_TI_symbol_name("pxPreviousWakeTime")
	.dwattr $C$DW$115, DW_AT_type(*$C$DW$T$142)
	.dwattr $C$DW$115, DW_AT_location[DW_OP_reg0]

$C$DW$116	.dwtag  DW_TAG_formal_parameter
	.dwattr $C$DW$116, DW_AT_name("xTimeIncrement")
	.dwattr $C$DW$116, DW_AT_TI_symbol_name("xTimeIncrement")
	.dwattr $C$DW$116, DW_AT_type(*$C$DW$T$143)
	.dwattr $C$DW$116, DW_AT_location[DW_OP_reg1]


;*****************************************************************************
;* FUNCTION NAME: vTaskDelayUntil                                            *
;*                                                                           *
;*   Regs Modified     : A1,A2,A3,A4,V9,SP,LR,SR,D0,D0_hi,D1,D1_hi,D2,D2_hi, *
;*                           D3,D3_hi,D4,D4_hi,D5,D5_hi,D6,D6_hi,D7,D7_hi,   *
;*                           FPEXC,FPSCR                                     *
;*   Regs Used         : A1,A2,A3,A4,V9,SP,LR,SR,D0,D0_hi,D1,D1_hi,D2,D2_hi, *
;*                           D3,D3_hi,D4,D4_hi,D5,D5_hi,D6,D6_hi,D7,D7_hi,   *
;*                           FPEXC,FPSCR                                     *
;*   Local Frame Size  : 0 Args + 24 Auto + 4 Save = 28 byte                 *
;*****************************************************************************
vTaskDelayUntil:
;* --------------------------------------------------------------------------*
	.dwcfi	cfa_offset, 0
        PUSH      {LR}                  ; [DPU_V7M3_PIPE] 
	.dwcfi	cfa_offset, 4
	.dwcfi	save_reg_to_mem, 14, -4
        SUB       SP, SP, #28           ; [DPU_V7M3_PIPE] 
	.dwcfi	cfa_offset, 32
$C$DW$117	.dwtag  DW_TAG_variable
	.dwattr $C$DW$117, DW_AT_name("pxPreviousWakeTime")
	.dwattr $C$DW$117, DW_AT_TI_symbol_name("pxPreviousWakeTime")
	.dwattr $C$DW$117, DW_AT_type(*$C$DW$T$142)
	.dwattr $C$DW$117, DW_AT_location[DW_OP_breg13 0]

$C$DW$118	.dwtag  DW_TAG_variable
	.dwattr $C$DW$118, DW_AT_name("xTimeIncrement")
	.dwattr $C$DW$118, DW_AT_TI_symbol_name("xTimeIncrement")
	.dwattr $C$DW$118, DW_AT_type(*$C$DW$T$143)
	.dwattr $C$DW$118, DW_AT_location[DW_OP_breg13 4]

$C$DW$119	.dwtag  DW_TAG_variable
	.dwattr $C$DW$119, DW_AT_name("xTimeToWake")
	.dwattr $C$DW$119, DW_AT_TI_symbol_name("xTimeToWake")
	.dwattr $C$DW$119, DW_AT_type(*$C$DW$T$50)
	.dwattr $C$DW$119, DW_AT_location[DW_OP_breg13 8]

$C$DW$120	.dwtag  DW_TAG_variable
	.dwattr $C$DW$120, DW_AT_name("xAlreadyYielded")
	.dwattr $C$DW$120, DW_AT_TI_symbol_name("xAlreadyYielded")
	.dwattr $C$DW$120, DW_AT_type(*$C$DW$T$93)
	.dwattr $C$DW$120, DW_AT_location[DW_OP_breg13 12]

$C$DW$121	.dwtag  DW_TAG_variable
	.dwattr $C$DW$121, DW_AT_name("xShouldDelay")
	.dwattr $C$DW$121, DW_AT_TI_symbol_name("xShouldDelay")
	.dwattr $C$DW$121, DW_AT_type(*$C$DW$T$93)
	.dwattr $C$DW$121, DW_AT_location[DW_OP_breg13 16]

        STR       A2, [SP, #4]          ; [DPU_V7M3_PIPE] |1222| 
        STR       A1, [SP, #0]          ; [DPU_V7M3_PIPE] |1222| 
	.dwpsn	file "../Tivaware_Dep/third_party/FreeRTOS/Source/tasks.c",line 1224,column 43,is_stmt,isa 1
        MOVS      A1, #0                ; [DPU_V7M3_PIPE] |1224| 
        STR       A1, [SP, #16]         ; [DPU_V7M3_PIPE] |1224| 
	.dwpsn	file "../Tivaware_Dep/third_party/FreeRTOS/Source/tasks.c",line 1230,column 3,is_stmt,isa 1
$C$DW$122	.dwtag  DW_TAG_TI_branch
	.dwattr $C$DW$122, DW_AT_low_pc(0x00)
	.dwattr $C$DW$122, DW_AT_name("vTaskSuspendAll")
	.dwattr $C$DW$122, DW_AT_TI_call

        BL        vTaskSuspendAll       ; [DPU_V7M3_PIPE] |1230| 
        ; CALL OCCURS {vTaskSuspendAll }  ; [] |1230| 

$C$DW$123	.dwtag  DW_TAG_lexical_block
	.dwattr $C$DW$123, DW_AT_low_pc(0x00)
	.dwattr $C$DW$123, DW_AT_high_pc(0x00)
$C$DW$124	.dwtag  DW_TAG_variable
	.dwattr $C$DW$124, DW_AT_name("xConstTickCount")
	.dwattr $C$DW$124, DW_AT_TI_symbol_name("xConstTickCount")
	.dwattr $C$DW$124, DW_AT_type(*$C$DW$T$143)
	.dwattr $C$DW$124, DW_AT_location[DW_OP_breg13 20]

	.dwpsn	file "../Tivaware_Dep/third_party/FreeRTOS/Source/tasks.c",line 1234,column 37,is_stmt,isa 1
        LDR       A1, $C$CON17          ; [DPU_V7M3_PIPE] |1234| 
        LDR       A1, [A1, #0]          ; [DPU_V7M3_PIPE] |1234| 
        STR       A1, [SP, #20]         ; [DPU_V7M3_PIPE] |1234| 
	.dwpsn	file "../Tivaware_Dep/third_party/FreeRTOS/Source/tasks.c",line 1237,column 4,is_stmt,isa 1
        LDR       A1, [SP, #0]          ; [DPU_V7M3_PIPE] |1237| 
        LDR       A2, [SP, #4]          ; [DPU_V7M3_PIPE] |1237| 
        LDR       A1, [A1, #0]          ; [DPU_V7M3_PIPE] |1237| 
        ADDS      A1, A1, A2            ; [DPU_V7M3_PIPE] |1237| 
        STR       A1, [SP, #8]          ; [DPU_V7M3_PIPE] |1237| 
	.dwpsn	file "../Tivaware_Dep/third_party/FreeRTOS/Source/tasks.c",line 1239,column 4,is_stmt,isa 1
        LDR       A1, [SP, #0]          ; [DPU_V7M3_PIPE] |1239| 
        LDR       A2, [SP, #20]         ; [DPU_V7M3_PIPE] |1239| 
        LDR       A1, [A1, #0]          ; [DPU_V7M3_PIPE] |1239| 
        CMP       A1, A2                ; [DPU_V7M3_PIPE] |1239| 
        BLS       ||$C$L21||            ; [DPU_V7M3_PIPE] |1239| 
        ; BRANCHCC OCCURS {||$C$L21||}   ; [] |1239| 
;* --------------------------------------------------------------------------*
	.dwpsn	file "../Tivaware_Dep/third_party/FreeRTOS/Source/tasks.c",line 1246,column 5,is_stmt,isa 1
        LDR       A1, [SP, #0]          ; [DPU_V7M3_PIPE] |1246| 
        LDR       A2, [SP, #8]          ; [DPU_V7M3_PIPE] |1246| 
        LDR       A1, [A1, #0]          ; [DPU_V7M3_PIPE] |1246| 
        CMP       A1, A2                ; [DPU_V7M3_PIPE] |1246| 
        BLS       ||$C$L23||            ; [DPU_V7M3_PIPE] |1246| 
        ; BRANCHCC OCCURS {||$C$L23||}   ; [] |1246| 
;* --------------------------------------------------------------------------*
        LDR       A1, [SP, #20]         ; [DPU_V7M3_PIPE] |1246| 
        LDR       A2, [SP, #8]          ; [DPU_V7M3_PIPE] |1246| 
        CMP       A1, A2                ; [DPU_V7M3_PIPE] |1246| 
        BCS       ||$C$L23||            ; [DPU_V7M3_PIPE] |1246| 
        ; BRANCHCC OCCURS {||$C$L23||}   ; [] |1246| 
;* --------------------------------------------------------------------------*
	.dwpsn	file "../Tivaware_Dep/third_party/FreeRTOS/Source/tasks.c",line 1248,column 6,is_stmt,isa 1
        MOVS      A1, #1                ; [DPU_V7M3_PIPE] |1248| 
        STR       A1, [SP, #16]         ; [DPU_V7M3_PIPE] |1248| 
	.dwpsn	file "../Tivaware_Dep/third_party/FreeRTOS/Source/tasks.c",line 1249,column 5,is_stmt,isa 1
        B         ||$C$L23||            ; [DPU_V7M3_PIPE] |1249| 
        ; BRANCH OCCURS {||$C$L23||}     ; [] |1249| 
;* --------------------------------------------------------------------------*
;* --------------------------------------------------------------------------*
||$C$L21||:    
	.dwpsn	file "../Tivaware_Dep/third_party/FreeRTOS/Source/tasks.c",line 1260,column 5,is_stmt,isa 1
        LDR       A1, [SP, #0]          ; [DPU_V7M3_PIPE] |1260| 
        LDR       A2, [SP, #8]          ; [DPU_V7M3_PIPE] |1260| 
        LDR       A1, [A1, #0]          ; [DPU_V7M3_PIPE] |1260| 
        CMP       A1, A2                ; [DPU_V7M3_PIPE] |1260| 
        BHI       ||$C$L22||            ; [DPU_V7M3_PIPE] |1260| 
        ; BRANCHCC OCCURS {||$C$L22||}   ; [] |1260| 
;* --------------------------------------------------------------------------*
        LDR       A1, [SP, #20]         ; [DPU_V7M3_PIPE] |1260| 
        LDR       A2, [SP, #8]          ; [DPU_V7M3_PIPE] |1260| 
        CMP       A1, A2                ; [DPU_V7M3_PIPE] |1260| 
        BCS       ||$C$L23||            ; [DPU_V7M3_PIPE] |1260| 
        ; BRANCHCC OCCURS {||$C$L23||}   ; [] |1260| 
;* --------------------------------------------------------------------------*
||$C$L22||:    
	.dwpsn	file "../Tivaware_Dep/third_party/FreeRTOS/Source/tasks.c",line 1262,column 6,is_stmt,isa 1
        MOVS      A1, #1                ; [DPU_V7M3_PIPE] |1262| 
        STR       A1, [SP, #16]         ; [DPU_V7M3_PIPE] |1262| 
	.dwpsn	file "../Tivaware_Dep/third_party/FreeRTOS/Source/tasks.c",line 1263,column 5,is_stmt,isa 1
;* --------------------------------------------------------------------------*
||$C$L23||:    
	.dwpsn	file "../Tivaware_Dep/third_party/FreeRTOS/Source/tasks.c",line 1271,column 4,is_stmt,isa 1
        LDR       A1, [SP, #8]          ; [DPU_V7M3_PIPE] |1271| 
        LDR       A2, [SP, #0]          ; [DPU_V7M3_PIPE] |1271| 
        STR       A1, [A2, #0]          ; [DPU_V7M3_PIPE] |1271| 
	.dwpsn	file "../Tivaware_Dep/third_party/FreeRTOS/Source/tasks.c",line 1273,column 4,is_stmt,isa 1
        LDR       A1, [SP, #16]         ; [DPU_V7M3_PIPE] |1273| 
        CBZ       A1, ||$C$L24||        ; [] 
        ; BRANCHCC OCCURS {||$C$L24||}   ; [] |1273| 
;* --------------------------------------------------------------------------*
	.dwpsn	file "../Tivaware_Dep/third_party/FreeRTOS/Source/tasks.c",line 1279,column 5,is_stmt,isa 1
        LDR       A2, [SP, #20]         ; [DPU_V7M3_PIPE] |1279| 
        LDR       A1, [SP, #8]          ; [DPU_V7M3_PIPE] |1279| 
        SUBS      A1, A1, A2            ; [DPU_V7M3_PIPE] |1279| 
        MOVS      A2, #0                ; [DPU_V7M3_PIPE] |1279| 
$C$DW$125	.dwtag  DW_TAG_TI_branch
	.dwattr $C$DW$125, DW_AT_low_pc(0x00)
	.dwattr $C$DW$125, DW_AT_name("prvAddCurrentTaskToDelayedList")
	.dwattr $C$DW$125, DW_AT_TI_call

        BL        prvAddCurrentTaskToDelayedList ; [DPU_V7M3_PIPE] |1279| 
        ; CALL OCCURS {prvAddCurrentTaskToDelayedList }  ; [] |1279| 
	.dwpsn	file "../Tivaware_Dep/third_party/FreeRTOS/Source/tasks.c",line 1280,column 4,is_stmt,isa 1
;* --------------------------------------------------------------------------*
||$C$L24||:    
	.dwendtag $C$DW$123

	.dwpsn	file "../Tivaware_Dep/third_party/FreeRTOS/Source/tasks.c",line 1286,column 3,is_stmt,isa 1
$C$DW$126	.dwtag  DW_TAG_TI_branch
	.dwattr $C$DW$126, DW_AT_low_pc(0x00)
	.dwattr $C$DW$126, DW_AT_name("xTaskResumeAll")
	.dwattr $C$DW$126, DW_AT_TI_call

        BL        xTaskResumeAll        ; [DPU_V7M3_PIPE] |1286| 
        ; CALL OCCURS {xTaskResumeAll }  ; [] |1286| 
        STR       A1, [SP, #12]         ; [DPU_V7M3_PIPE] |1286| 
	.dwpsn	file "../Tivaware_Dep/third_party/FreeRTOS/Source/tasks.c",line 1290,column 3,is_stmt,isa 1
        LDR       A1, [SP, #12]         ; [DPU_V7M3_PIPE] |1290| 
        CBNZ      A1, ||$C$L25||        ; [] 
        ; BRANCHCC OCCURS {||$C$L25||}   ; [] |1290| 
;* --------------------------------------------------------------------------*
	.dwpsn	file "../Tivaware_Dep/third_party/FreeRTOS/Source/tasks.c",line 1292,column 4,is_stmt,isa 1
        LDR       A2, $C$CON18          ; [DPU_V7M3_PIPE] |1292| 
        MOV       A1, #268435456        ; [DPU_V7M3_PIPE] |1292| 
        STR       A1, [A2, #0]          ; [DPU_V7M3_PIPE] |1292| 
	dsb
	isb
	.dwpsn	file "../Tivaware_Dep/third_party/FreeRTOS/Source/tasks.c",line 1293,column 3,is_stmt,isa 1
        B         ||$C$L25||            ; [DPU_V7M3_PIPE] |1293| 
        ; BRANCH OCCURS {||$C$L25||}     ; [] |1293| 
;* --------------------------------------------------------------------------*
;* --------------------------------------------------------------------------*
||$C$L25||:    
        ADD       SP, SP, #28           ; [DPU_V7M3_PIPE] 
	.dwcfi	cfa_offset, 4
$C$DW$127	.dwtag  DW_TAG_TI_branch
	.dwattr $C$DW$127, DW_AT_low_pc(0x00)
	.dwattr $C$DW$127, DW_AT_TI_return

        POP       {PC}                  ; [DPU_V7M3_PIPE] 
	.dwcfi	cfa_offset, 0
        ; BRANCH OCCURS                  ; [] 
	.dwattr $C$DW$114, DW_AT_TI_end_file("../Tivaware_Dep/third_party/FreeRTOS/Source/tasks.c")
	.dwattr $C$DW$114, DW_AT_TI_end_line(0x512)
	.dwattr $C$DW$114, DW_AT_TI_end_column(0x02)
	.dwendentry
	.dwendtag $C$DW$114

	.sect	".text:vTaskDelay"
	.clink
	.thumbfunc vTaskDelay
	.thumb
	.global	vTaskDelay

$C$DW$128	.dwtag  DW_TAG_subprogram
	.dwattr $C$DW$128, DW_AT_name("vTaskDelay")
	.dwattr $C$DW$128, DW_AT_low_pc(vTaskDelay)
	.dwattr $C$DW$128, DW_AT_high_pc(0x00)
	.dwattr $C$DW$128, DW_AT_TI_symbol_name("vTaskDelay")
	.dwattr $C$DW$128, DW_AT_external
	.dwattr $C$DW$128, DW_AT_TI_begin_file("../Tivaware_Dep/third_party/FreeRTOS/Source/tasks.c")
	.dwattr $C$DW$128, DW_AT_TI_begin_line(0x519)
	.dwattr $C$DW$128, DW_AT_TI_begin_column(0x07)
	.dwattr $C$DW$128, DW_AT_decl_file("../Tivaware_Dep/third_party/FreeRTOS/Source/tasks.c")
	.dwattr $C$DW$128, DW_AT_decl_line(0x519)
	.dwattr $C$DW$128, DW_AT_decl_column(0x07)
	.dwattr $C$DW$128, DW_AT_TI_max_frame_size(0x10)
	.dwpsn	file "../Tivaware_Dep/third_party/FreeRTOS/Source/tasks.c",line 1306,column 2,is_stmt,address vTaskDelay,isa 1

	.dwfde $C$DW$CIE, vTaskDelay
$C$DW$129	.dwtag  DW_TAG_formal_parameter
	.dwattr $C$DW$129, DW_AT_name("xTicksToDelay")
	.dwattr $C$DW$129, DW_AT_TI_symbol_name("xTicksToDelay")
	.dwattr $C$DW$129, DW_AT_type(*$C$DW$T$143)
	.dwattr $C$DW$129, DW_AT_location[DW_OP_reg0]


;*****************************************************************************
;* FUNCTION NAME: vTaskDelay                                                 *
;*                                                                           *
;*   Regs Modified     : A1,A2,A3,A4,V9,SP,LR,SR,D0,D0_hi,D1,D1_hi,D2,D2_hi, *
;*                           D3,D3_hi,D4,D4_hi,D5,D5_hi,D6,D6_hi,D7,D7_hi,   *
;*                           FPEXC,FPSCR                                     *
;*   Regs Used         : A1,A2,A3,A4,V9,SP,LR,SR,D0,D0_hi,D1,D1_hi,D2,D2_hi, *
;*                           D3,D3_hi,D4,D4_hi,D5,D5_hi,D6,D6_hi,D7,D7_hi,   *
;*                           FPEXC,FPSCR                                     *
;*   Local Frame Size  : 0 Args + 8 Auto + 4 Save = 12 byte                  *
;*****************************************************************************
vTaskDelay:
;* --------------------------------------------------------------------------*
	.dwcfi	cfa_offset, 0
        PUSH      {A2, A3, A4, LR}      ; [DPU_V7M3_PIPE] 
	.dwcfi	cfa_offset, 16
	.dwcfi	save_reg_to_mem, 14, -4
	.dwcfi	save_reg_to_mem, 3, -8
	.dwcfi	save_reg_to_mem, 2, -12
	.dwcfi	save_reg_to_mem, 1, -16
$C$DW$130	.dwtag  DW_TAG_variable
	.dwattr $C$DW$130, DW_AT_name("xTicksToDelay")
	.dwattr $C$DW$130, DW_AT_TI_symbol_name("xTicksToDelay")
	.dwattr $C$DW$130, DW_AT_type(*$C$DW$T$143)
	.dwattr $C$DW$130, DW_AT_location[DW_OP_breg13 0]

$C$DW$131	.dwtag  DW_TAG_variable
	.dwattr $C$DW$131, DW_AT_name("xAlreadyYielded")
	.dwattr $C$DW$131, DW_AT_TI_symbol_name("xAlreadyYielded")
	.dwattr $C$DW$131, DW_AT_type(*$C$DW$T$93)
	.dwattr $C$DW$131, DW_AT_location[DW_OP_breg13 4]

        STR       A1, [SP, #0]          ; [DPU_V7M3_PIPE] |1306| 
	.dwpsn	file "../Tivaware_Dep/third_party/FreeRTOS/Source/tasks.c",line 1307,column 29,is_stmt,isa 1
        MOVS      A1, #0                ; [DPU_V7M3_PIPE] |1307| 
        STR       A1, [SP, #4]          ; [DPU_V7M3_PIPE] |1307| 
	.dwpsn	file "../Tivaware_Dep/third_party/FreeRTOS/Source/tasks.c",line 1310,column 3,is_stmt,isa 1
        LDR       A1, [SP, #0]          ; [DPU_V7M3_PIPE] |1310| 
        CBZ       A1, ||$C$L26||        ; [] 
        ; BRANCHCC OCCURS {||$C$L26||}   ; [] |1310| 
;* --------------------------------------------------------------------------*
	.dwpsn	file "../Tivaware_Dep/third_party/FreeRTOS/Source/tasks.c",line 1313,column 4,is_stmt,isa 1
$C$DW$132	.dwtag  DW_TAG_TI_branch
	.dwattr $C$DW$132, DW_AT_low_pc(0x00)
	.dwattr $C$DW$132, DW_AT_name("vTaskSuspendAll")
	.dwattr $C$DW$132, DW_AT_TI_call

        BL        vTaskSuspendAll       ; [DPU_V7M3_PIPE] |1313| 
        ; CALL OCCURS {vTaskSuspendAll }  ; [] |1313| 
	.dwpsn	file "../Tivaware_Dep/third_party/FreeRTOS/Source/tasks.c",line 1324,column 5,is_stmt,isa 1
        LDR       A1, [SP, #0]          ; [DPU_V7M3_PIPE] |1324| 
        MOVS      A2, #0                ; [DPU_V7M3_PIPE] |1324| 
$C$DW$133	.dwtag  DW_TAG_TI_branch
	.dwattr $C$DW$133, DW_AT_low_pc(0x00)
	.dwattr $C$DW$133, DW_AT_name("prvAddCurrentTaskToDelayedList")
	.dwattr $C$DW$133, DW_AT_TI_call

        BL        prvAddCurrentTaskToDelayedList ; [DPU_V7M3_PIPE] |1324| 
        ; CALL OCCURS {prvAddCurrentTaskToDelayedList }  ; [] |1324| 
	.dwpsn	file "../Tivaware_Dep/third_party/FreeRTOS/Source/tasks.c",line 1326,column 4,is_stmt,isa 1
$C$DW$134	.dwtag  DW_TAG_TI_branch
	.dwattr $C$DW$134, DW_AT_low_pc(0x00)
	.dwattr $C$DW$134, DW_AT_name("xTaskResumeAll")
	.dwattr $C$DW$134, DW_AT_TI_call

        BL        xTaskResumeAll        ; [DPU_V7M3_PIPE] |1326| 
        ; CALL OCCURS {xTaskResumeAll }  ; [] |1326| 
        STR       A1, [SP, #4]          ; [DPU_V7M3_PIPE] |1326| 
	.dwpsn	file "../Tivaware_Dep/third_party/FreeRTOS/Source/tasks.c",line 1327,column 3,is_stmt,isa 1
;* --------------------------------------------------------------------------*
||$C$L26||:    
	.dwpsn	file "../Tivaware_Dep/third_party/FreeRTOS/Source/tasks.c",line 1335,column 3,is_stmt,isa 1
        LDR       A1, [SP, #4]          ; [DPU_V7M3_PIPE] |1335| 
        CBNZ      A1, ||$C$L27||        ; [] 
        ; BRANCHCC OCCURS {||$C$L27||}   ; [] |1335| 
;* --------------------------------------------------------------------------*
	.dwpsn	file "../Tivaware_Dep/third_party/FreeRTOS/Source/tasks.c",line 1337,column 4,is_stmt,isa 1
        LDR       A2, $C$CON19          ; [DPU_V7M3_PIPE] |1337| 
        MOV       A1, #268435456        ; [DPU_V7M3_PIPE] |1337| 
        STR       A1, [A2, #0]          ; [DPU_V7M3_PIPE] |1337| 
	dsb
	isb
	.dwpsn	file "../Tivaware_Dep/third_party/FreeRTOS/Source/tasks.c",line 1338,column 3,is_stmt,isa 1
        B         ||$C$L27||            ; [DPU_V7M3_PIPE] |1338| 
        ; BRANCH OCCURS {||$C$L27||}     ; [] |1338| 
;* --------------------------------------------------------------------------*
;* --------------------------------------------------------------------------*
||$C$L27||:    
$C$DW$135	.dwtag  DW_TAG_TI_branch
	.dwattr $C$DW$135, DW_AT_low_pc(0x00)
	.dwattr $C$DW$135, DW_AT_TI_return

        POP       {A2, A3, A4, PC}      ; [DPU_V7M3_PIPE] 
	.dwcfi	cfa_offset, 0
	.dwcfi	restore_reg, 3
	.dwcfi	restore_reg, 2
	.dwcfi	restore_reg, 1
        ; BRANCH OCCURS                  ; [] 
	.dwattr $C$DW$128, DW_AT_TI_end_file("../Tivaware_Dep/third_party/FreeRTOS/Source/tasks.c")
	.dwattr $C$DW$128, DW_AT_TI_end_line(0x53f)
	.dwattr $C$DW$128, DW_AT_TI_end_column(0x02)
	.dwendentry
	.dwendtag $C$DW$128

	.sect	".text:eTaskGetState"
	.clink
	.thumbfunc eTaskGetState
	.thumb
	.global	eTaskGetState

$C$DW$136	.dwtag  DW_TAG_subprogram
	.dwattr $C$DW$136, DW_AT_name("eTaskGetState")
	.dwattr $C$DW$136, DW_AT_low_pc(eTaskGetState)
	.dwattr $C$DW$136, DW_AT_high_pc(0x00)
	.dwattr $C$DW$136, DW_AT_TI_symbol_name("eTaskGetState")
	.dwattr $C$DW$136, DW_AT_external
	.dwattr $C$DW$136, DW_AT_type(*$C$DW$T$91)
	.dwattr $C$DW$136, DW_AT_TI_begin_file("../Tivaware_Dep/third_party/FreeRTOS/Source/tasks.c")
	.dwattr $C$DW$136, DW_AT_TI_begin_line(0x546)
	.dwattr $C$DW$136, DW_AT_TI_begin_column(0x0d)
	.dwattr $C$DW$136, DW_AT_decl_file("../Tivaware_Dep/third_party/FreeRTOS/Source/tasks.c")
	.dwattr $C$DW$136, DW_AT_decl_line(0x546)
	.dwattr $C$DW$136, DW_AT_decl_column(0x0d)
	.dwattr $C$DW$136, DW_AT_TI_max_frame_size(0x20)
	.dwpsn	file "../Tivaware_Dep/third_party/FreeRTOS/Source/tasks.c",line 1351,column 2,is_stmt,address eTaskGetState,isa 1

	.dwfde $C$DW$CIE, eTaskGetState
$C$DW$137	.dwtag  DW_TAG_formal_parameter
	.dwattr $C$DW$137, DW_AT_name("xTask")
	.dwattr $C$DW$137, DW_AT_TI_symbol_name("xTask")
	.dwattr $C$DW$137, DW_AT_type(*$C$DW$T$89)
	.dwattr $C$DW$137, DW_AT_location[DW_OP_reg0]


;*****************************************************************************
;* FUNCTION NAME: eTaskGetState                                              *
;*                                                                           *
;*   Regs Modified     : A1,A2,A3,A4,V9,SP,LR,SR,D0,D0_hi,D1,D1_hi,D2,D2_hi, *
;*                           D3,D3_hi,D4,D4_hi,D5,D5_hi,D6,D6_hi,D7,D7_hi,   *
;*                           FPEXC,FPSCR                                     *
;*   Regs Used         : A1,A2,A3,A4,V9,SP,LR,SR,D0,D0_hi,D1,D1_hi,D2,D2_hi, *
;*                           D3,D3_hi,D4,D4_hi,D5,D5_hi,D6,D6_hi,D7,D7_hi,   *
;*                           FPEXC,FPSCR                                     *
;*   Local Frame Size  : 0 Args + 24 Auto + 4 Save = 28 byte                 *
;*****************************************************************************
eTaskGetState:
;* --------------------------------------------------------------------------*
	.dwcfi	cfa_offset, 0
        PUSH      {LR}                  ; [DPU_V7M3_PIPE] 
	.dwcfi	cfa_offset, 4
	.dwcfi	save_reg_to_mem, 14, -4
        SUB       SP, SP, #28           ; [DPU_V7M3_PIPE] 
	.dwcfi	cfa_offset, 32
$C$DW$138	.dwtag  DW_TAG_variable
	.dwattr $C$DW$138, DW_AT_name("xTask")
	.dwattr $C$DW$138, DW_AT_TI_symbol_name("xTask")
	.dwattr $C$DW$138, DW_AT_type(*$C$DW$T$89)
	.dwattr $C$DW$138, DW_AT_location[DW_OP_breg13 0]

$C$DW$139	.dwtag  DW_TAG_variable
	.dwattr $C$DW$139, DW_AT_name("pxStateList")
	.dwattr $C$DW$139, DW_AT_TI_symbol_name("pxStateList")
	.dwattr $C$DW$139, DW_AT_type(*$C$DW$T$280)
	.dwattr $C$DW$139, DW_AT_location[DW_OP_breg13 4]

$C$DW$140	.dwtag  DW_TAG_variable
	.dwattr $C$DW$140, DW_AT_name("pxDelayedList")
	.dwattr $C$DW$140, DW_AT_TI_symbol_name("pxDelayedList")
	.dwattr $C$DW$140, DW_AT_type(*$C$DW$T$280)
	.dwattr $C$DW$140, DW_AT_location[DW_OP_breg13 8]

$C$DW$141	.dwtag  DW_TAG_variable
	.dwattr $C$DW$141, DW_AT_name("pxOverflowedDelayedList")
	.dwattr $C$DW$141, DW_AT_TI_symbol_name("pxOverflowedDelayedList")
	.dwattr $C$DW$141, DW_AT_type(*$C$DW$T$280)
	.dwattr $C$DW$141, DW_AT_location[DW_OP_breg13 12]

$C$DW$142	.dwtag  DW_TAG_variable
	.dwattr $C$DW$142, DW_AT_name("pxTCB")
	.dwattr $C$DW$142, DW_AT_TI_symbol_name("pxTCB")
	.dwattr $C$DW$142, DW_AT_type(*$C$DW$T$340)
	.dwattr $C$DW$142, DW_AT_location[DW_OP_breg13 16]

$C$DW$143	.dwtag  DW_TAG_variable
	.dwattr $C$DW$143, DW_AT_name("eReturn")
	.dwattr $C$DW$143, DW_AT_TI_symbol_name("eReturn")
	.dwattr $C$DW$143, DW_AT_type(*$C$DW$T$91)
	.dwattr $C$DW$143, DW_AT_location[DW_OP_breg13 20]

        STR       A1, [SP, #0]          ; [DPU_V7M3_PIPE] |1351| 
	.dwpsn	file "../Tivaware_Dep/third_party/FreeRTOS/Source/tasks.c",line 1354,column 28,is_stmt,isa 1
        LDR       A1, [SP, #0]          ; [DPU_V7M3_PIPE] |1354| 
        STR       A1, [SP, #16]         ; [DPU_V7M3_PIPE] |1354| 
	.dwpsn	file "../Tivaware_Dep/third_party/FreeRTOS/Source/tasks.c",line 1358,column 3,is_stmt,isa 1
        LDR       A1, $C$CON20          ; [DPU_V7M3_PIPE] |1358| 
        LDR       A2, [SP, #16]         ; [DPU_V7M3_PIPE] |1358| 
        LDR       A1, [A1, #0]          ; [DPU_V7M3_PIPE] |1358| 
        CMP       A1, A2                ; [DPU_V7M3_PIPE] |1358| 
        BNE       ||$C$L28||            ; [DPU_V7M3_PIPE] |1358| 
        ; BRANCHCC OCCURS {||$C$L28||}   ; [] |1358| 
;* --------------------------------------------------------------------------*
	.dwpsn	file "../Tivaware_Dep/third_party/FreeRTOS/Source/tasks.c",line 1361,column 4,is_stmt,isa 1
        MOVS      A1, #0                ; [DPU_V7M3_PIPE] |1361| 
        STRB      A1, [SP, #20]         ; [DPU_V7M3_PIPE] |1361| 
	.dwpsn	file "../Tivaware_Dep/third_party/FreeRTOS/Source/tasks.c",line 1362,column 3,is_stmt,isa 1
        B         ||$C$L36||            ; [DPU_V7M3_PIPE] |1362| 
        ; BRANCH OCCURS {||$C$L36||}     ; [] |1362| 
;* --------------------------------------------------------------------------*
||$C$L28||:    
	.dwpsn	file "../Tivaware_Dep/third_party/FreeRTOS/Source/tasks.c",line 1365,column 4,is_stmt,isa 1
$C$DW$144	.dwtag  DW_TAG_TI_branch
	.dwattr $C$DW$144, DW_AT_low_pc(0x00)
	.dwattr $C$DW$144, DW_AT_name("vPortEnterCritical")
	.dwattr $C$DW$144, DW_AT_TI_call

        BL        vPortEnterCritical    ; [DPU_V7M3_PIPE] |1365| 
        ; CALL OCCURS {vPortEnterCritical }  ; [] |1365| 
	.dwpsn	file "../Tivaware_Dep/third_party/FreeRTOS/Source/tasks.c",line 1367,column 5,is_stmt,isa 1
        LDR       A1, [SP, #16]         ; [DPU_V7M3_PIPE] |1367| 
        LDR       A1, [A1, #20]         ; [DPU_V7M3_PIPE] |1367| 
        STR       A1, [SP, #4]          ; [DPU_V7M3_PIPE] |1367| 
	.dwpsn	file "../Tivaware_Dep/third_party/FreeRTOS/Source/tasks.c",line 1368,column 5,is_stmt,isa 1
        LDR       A1, $C$CON21          ; [DPU_V7M3_PIPE] |1368| 
        LDR       A1, [A1, #0]          ; [DPU_V7M3_PIPE] |1368| 
        STR       A1, [SP, #8]          ; [DPU_V7M3_PIPE] |1368| 
	.dwpsn	file "../Tivaware_Dep/third_party/FreeRTOS/Source/tasks.c",line 1369,column 5,is_stmt,isa 1
        LDR       A1, $C$CON22          ; [DPU_V7M3_PIPE] |1369| 
        LDR       A1, [A1, #0]          ; [DPU_V7M3_PIPE] |1369| 
        STR       A1, [SP, #12]         ; [DPU_V7M3_PIPE] |1369| 
	.dwpsn	file "../Tivaware_Dep/third_party/FreeRTOS/Source/tasks.c",line 1371,column 4,is_stmt,isa 1
$C$DW$145	.dwtag  DW_TAG_TI_branch
	.dwattr $C$DW$145, DW_AT_low_pc(0x00)
	.dwattr $C$DW$145, DW_AT_name("vPortExitCritical")
	.dwattr $C$DW$145, DW_AT_TI_call

        BL        vPortExitCritical     ; [DPU_V7M3_PIPE] |1371| 
        ; CALL OCCURS {vPortExitCritical }  ; [] |1371| 
	.dwpsn	file "../Tivaware_Dep/third_party/FreeRTOS/Source/tasks.c",line 1373,column 4,is_stmt,isa 1
        LDR       A1, [SP, #8]          ; [DPU_V7M3_PIPE] |1373| 
        LDR       A2, [SP, #4]          ; [DPU_V7M3_PIPE] |1373| 
        CMP       A1, A2                ; [DPU_V7M3_PIPE] |1373| 
        BEQ       ||$C$L29||            ; [DPU_V7M3_PIPE] |1373| 
        ; BRANCHCC OCCURS {||$C$L29||}   ; [] |1373| 
;* --------------------------------------------------------------------------*
        LDR       A1, [SP, #12]         ; [DPU_V7M3_PIPE] |1373| 
        LDR       A2, [SP, #4]          ; [DPU_V7M3_PIPE] |1373| 
        CMP       A1, A2                ; [DPU_V7M3_PIPE] |1373| 
        BNE       ||$C$L30||            ; [DPU_V7M3_PIPE] |1373| 
        ; BRANCHCC OCCURS {||$C$L30||}   ; [] |1373| 
;* --------------------------------------------------------------------------*
||$C$L29||:    
	.dwpsn	file "../Tivaware_Dep/third_party/FreeRTOS/Source/tasks.c",line 1377,column 5,is_stmt,isa 1
        MOVS      A1, #2                ; [DPU_V7M3_PIPE] |1377| 
        STRB      A1, [SP, #20]         ; [DPU_V7M3_PIPE] |1377| 
	.dwpsn	file "../Tivaware_Dep/third_party/FreeRTOS/Source/tasks.c",line 1378,column 4,is_stmt,isa 1
        B         ||$C$L36||            ; [DPU_V7M3_PIPE] |1378| 
        ; BRANCH OCCURS {||$C$L36||}     ; [] |1378| 
;* --------------------------------------------------------------------------*
||$C$L30||:    
	.dwpsn	file "../Tivaware_Dep/third_party/FreeRTOS/Source/tasks.c",line 1381,column 10,is_stmt,isa 1
        LDR       A2, $C$CON23          ; [DPU_V7M3_PIPE] |1381| 
        LDR       A1, [SP, #4]          ; [DPU_V7M3_PIPE] |1381| 
        CMP       A2, A1                ; [DPU_V7M3_PIPE] |1381| 
        BNE       ||$C$L33||            ; [DPU_V7M3_PIPE] |1381| 
        ; BRANCHCC OCCURS {||$C$L33||}   ; [] |1381| 
;* --------------------------------------------------------------------------*
	.dwpsn	file "../Tivaware_Dep/third_party/FreeRTOS/Source/tasks.c",line 1386,column 6,is_stmt,isa 1
        LDR       A1, [SP, #16]         ; [DPU_V7M3_PIPE] |1386| 
        LDR       A1, [A1, #40]         ; [DPU_V7M3_PIPE] |1386| 
        CBNZ      A1, ||$C$L32||        ; [] 
        ; BRANCHCC OCCURS {||$C$L32||}   ; [] |1386| 
;* --------------------------------------------------------------------------*
	.dwpsn	file "../Tivaware_Dep/third_party/FreeRTOS/Source/tasks.c",line 1394,column 8,is_stmt,isa 1
        LDR       A1, [SP, #16]         ; [DPU_V7M3_PIPE] |1394| 
        LDRB      A1, [A1, #92]         ; [DPU_V7M3_PIPE] |1394| 
        CMP       A1, #1                ; [DPU_V7M3_PIPE] |1394| 
        BNE       ||$C$L31||            ; [DPU_V7M3_PIPE] |1394| 
        ; BRANCHCC OCCURS {||$C$L31||}   ; [] |1394| 
;* --------------------------------------------------------------------------*
	.dwpsn	file "../Tivaware_Dep/third_party/FreeRTOS/Source/tasks.c",line 1396,column 9,is_stmt,isa 1
        MOVS      A1, #2                ; [DPU_V7M3_PIPE] |1396| 
        STRB      A1, [SP, #20]         ; [DPU_V7M3_PIPE] |1396| 
	.dwpsn	file "../Tivaware_Dep/third_party/FreeRTOS/Source/tasks.c",line 1397,column 8,is_stmt,isa 1
        B         ||$C$L36||            ; [DPU_V7M3_PIPE] |1397| 
        ; BRANCH OCCURS {||$C$L36||}     ; [] |1397| 
;* --------------------------------------------------------------------------*
||$C$L31||:    
	.dwpsn	file "../Tivaware_Dep/third_party/FreeRTOS/Source/tasks.c",line 1400,column 9,is_stmt,isa 1
        MOVS      A1, #3                ; [DPU_V7M3_PIPE] |1400| 
        STRB      A1, [SP, #20]         ; [DPU_V7M3_PIPE] |1400| 
	.dwpsn	file "../Tivaware_Dep/third_party/FreeRTOS/Source/tasks.c",line 1408,column 6,is_stmt,isa 1
        B         ||$C$L36||            ; [DPU_V7M3_PIPE] |1408| 
        ; BRANCH OCCURS {||$C$L36||}     ; [] |1408| 
;* --------------------------------------------------------------------------*
||$C$L32||:    
	.dwpsn	file "../Tivaware_Dep/third_party/FreeRTOS/Source/tasks.c",line 1411,column 7,is_stmt,isa 1
        MOVS      A1, #2                ; [DPU_V7M3_PIPE] |1411| 
        STRB      A1, [SP, #20]         ; [DPU_V7M3_PIPE] |1411| 
	.dwpsn	file "../Tivaware_Dep/third_party/FreeRTOS/Source/tasks.c",line 1413,column 5,is_stmt,isa 1
        B         ||$C$L36||            ; [DPU_V7M3_PIPE] |1413| 
        ; BRANCH OCCURS {||$C$L36||}     ; [] |1413| 
;* --------------------------------------------------------------------------*
||$C$L33||:    
	.dwpsn	file "../Tivaware_Dep/third_party/FreeRTOS/Source/tasks.c",line 1417,column 10,is_stmt,isa 1
        LDR       A2, $C$CON24          ; [DPU_V7M3_PIPE] |1417| 
        LDR       A1, [SP, #4]          ; [DPU_V7M3_PIPE] |1417| 
        CMP       A2, A1                ; [DPU_V7M3_PIPE] |1417| 
        BEQ       ||$C$L34||            ; [DPU_V7M3_PIPE] |1417| 
        ; BRANCHCC OCCURS {||$C$L34||}   ; [] |1417| 
;* --------------------------------------------------------------------------*
        LDR       A1, [SP, #4]          ; [DPU_V7M3_PIPE] |1417| 
        CBNZ      A1, ||$C$L35||        ; [] 
        ; BRANCHCC OCCURS {||$C$L35||}   ; [] |1417| 
;* --------------------------------------------------------------------------*
||$C$L34||:    
	.dwpsn	file "../Tivaware_Dep/third_party/FreeRTOS/Source/tasks.c",line 1422,column 6,is_stmt,isa 1
        MOVS      A1, #4                ; [DPU_V7M3_PIPE] |1422| 
        STRB      A1, [SP, #20]         ; [DPU_V7M3_PIPE] |1422| 
	.dwpsn	file "../Tivaware_Dep/third_party/FreeRTOS/Source/tasks.c",line 1423,column 5,is_stmt,isa 1
        B         ||$C$L36||            ; [DPU_V7M3_PIPE] |1423| 
        ; BRANCH OCCURS {||$C$L36||}     ; [] |1423| 
;* --------------------------------------------------------------------------*
||$C$L35||:    
	.dwpsn	file "../Tivaware_Dep/third_party/FreeRTOS/Source/tasks.c",line 1430,column 5,is_stmt,isa 1
        MOVS      A1, #1                ; [DPU_V7M3_PIPE] |1430| 
        STRB      A1, [SP, #20]         ; [DPU_V7M3_PIPE] |1430| 
;* --------------------------------------------------------------------------*
||$C$L36||:    
	.dwpsn	file "../Tivaware_Dep/third_party/FreeRTOS/Source/tasks.c",line 1434,column 3,is_stmt,isa 1
        LDRB      A1, [SP, #20]         ; [DPU_V7M3_PIPE] |1434| 
	.dwpsn	file "../Tivaware_Dep/third_party/FreeRTOS/Source/tasks.c",line 1435,column 2,is_stmt,isa 1
        ADD       SP, SP, #28           ; [DPU_V7M3_PIPE] 
	.dwcfi	cfa_offset, 4
$C$DW$146	.dwtag  DW_TAG_TI_branch
	.dwattr $C$DW$146, DW_AT_low_pc(0x00)
	.dwattr $C$DW$146, DW_AT_TI_return

        POP       {PC}                  ; [DPU_V7M3_PIPE] 
	.dwcfi	cfa_offset, 0
        ; BRANCH OCCURS                  ; [] 
	.dwattr $C$DW$136, DW_AT_TI_end_file("../Tivaware_Dep/third_party/FreeRTOS/Source/tasks.c")
	.dwattr $C$DW$136, DW_AT_TI_end_line(0x59b)
	.dwattr $C$DW$136, DW_AT_TI_end_column(0x02)
	.dwendentry
	.dwendtag $C$DW$136

	.sect	".text:uxTaskPriorityGet"
	.clink
	.thumbfunc uxTaskPriorityGet
	.thumb
	.global	uxTaskPriorityGet

$C$DW$147	.dwtag  DW_TAG_subprogram
	.dwattr $C$DW$147, DW_AT_name("uxTaskPriorityGet")
	.dwattr $C$DW$147, DW_AT_low_pc(uxTaskPriorityGet)
	.dwattr $C$DW$147, DW_AT_high_pc(0x00)
	.dwattr $C$DW$147, DW_AT_TI_symbol_name("uxTaskPriorityGet")
	.dwattr $C$DW$147, DW_AT_external
	.dwattr $C$DW$147, DW_AT_type(*$C$DW$T$26)
	.dwattr $C$DW$147, DW_AT_TI_begin_file("../Tivaware_Dep/third_party/FreeRTOS/Source/tasks.c")
	.dwattr $C$DW$147, DW_AT_TI_begin_line(0x5a2)
	.dwattr $C$DW$147, DW_AT_TI_begin_column(0x0e)
	.dwattr $C$DW$147, DW_AT_decl_file("../Tivaware_Dep/third_party/FreeRTOS/Source/tasks.c")
	.dwattr $C$DW$147, DW_AT_decl_line(0x5a2)
	.dwattr $C$DW$147, DW_AT_decl_column(0x0e)
	.dwattr $C$DW$147, DW_AT_TI_max_frame_size(0x10)
	.dwpsn	file "../Tivaware_Dep/third_party/FreeRTOS/Source/tasks.c",line 1443,column 2,is_stmt,address uxTaskPriorityGet,isa 1

	.dwfde $C$DW$CIE, uxTaskPriorityGet
$C$DW$148	.dwtag  DW_TAG_formal_parameter
	.dwattr $C$DW$148, DW_AT_name("xTask")
	.dwattr $C$DW$148, DW_AT_TI_symbol_name("xTask")
	.dwattr $C$DW$148, DW_AT_type(*$C$DW$T$161)
	.dwattr $C$DW$148, DW_AT_location[DW_OP_reg0]


;*****************************************************************************
;* FUNCTION NAME: uxTaskPriorityGet                                          *
;*                                                                           *
;*   Regs Modified     : A1,A2,A3,A4,V9,SP,LR,SR,D0,D0_hi,D1,D1_hi,D2,D2_hi, *
;*                           D3,D3_hi,D4,D4_hi,D5,D5_hi,D6,D6_hi,D7,D7_hi,   *
;*                           FPEXC,FPSCR                                     *
;*   Regs Used         : A1,A2,A3,A4,V9,SP,LR,SR,D0,D0_hi,D1,D1_hi,D2,D2_hi, *
;*                           D3,D3_hi,D4,D4_hi,D5,D5_hi,D6,D6_hi,D7,D7_hi,   *
;*                           FPEXC,FPSCR                                     *
;*   Local Frame Size  : 0 Args + 12 Auto + 4 Save = 16 byte                 *
;*****************************************************************************
uxTaskPriorityGet:
;* --------------------------------------------------------------------------*
	.dwcfi	cfa_offset, 0
        PUSH      {A2, A3, A4, LR}      ; [DPU_V7M3_PIPE] 
	.dwcfi	cfa_offset, 16
	.dwcfi	save_reg_to_mem, 14, -4
	.dwcfi	save_reg_to_mem, 3, -8
	.dwcfi	save_reg_to_mem, 2, -12
	.dwcfi	save_reg_to_mem, 1, -16
$C$DW$149	.dwtag  DW_TAG_variable
	.dwattr $C$DW$149, DW_AT_name("xTask")
	.dwattr $C$DW$149, DW_AT_TI_symbol_name("xTask")
	.dwattr $C$DW$149, DW_AT_type(*$C$DW$T$161)
	.dwattr $C$DW$149, DW_AT_location[DW_OP_breg13 0]

$C$DW$150	.dwtag  DW_TAG_variable
	.dwattr $C$DW$150, DW_AT_name("pxTCB")
	.dwattr $C$DW$150, DW_AT_TI_symbol_name("pxTCB")
	.dwattr $C$DW$150, DW_AT_type(*$C$DW$T$339)
	.dwattr $C$DW$150, DW_AT_location[DW_OP_breg13 4]

$C$DW$151	.dwtag  DW_TAG_variable
	.dwattr $C$DW$151, DW_AT_name("uxReturn")
	.dwattr $C$DW$151, DW_AT_TI_symbol_name("uxReturn")
	.dwattr $C$DW$151, DW_AT_type(*$C$DW$T$26)
	.dwattr $C$DW$151, DW_AT_location[DW_OP_breg13 8]

        STR       A1, [SP, #0]          ; [DPU_V7M3_PIPE] |1443| 
	.dwpsn	file "../Tivaware_Dep/third_party/FreeRTOS/Source/tasks.c",line 1447,column 3,is_stmt,isa 1
$C$DW$152	.dwtag  DW_TAG_TI_branch
	.dwattr $C$DW$152, DW_AT_low_pc(0x00)
	.dwattr $C$DW$152, DW_AT_name("vPortEnterCritical")
	.dwattr $C$DW$152, DW_AT_TI_call

        BL        vPortEnterCritical    ; [DPU_V7M3_PIPE] |1447| 
        ; CALL OCCURS {vPortEnterCritical }  ; [] |1447| 
	.dwpsn	file "../Tivaware_Dep/third_party/FreeRTOS/Source/tasks.c",line 1451,column 4,is_stmt,isa 1
        LDR       A1, [SP, #0]          ; [DPU_V7M3_PIPE] |1451| 
        CBNZ      A1, ||$C$L37||        ; [] 
        ; BRANCHCC OCCURS {||$C$L37||}   ; [] |1451| 
;* --------------------------------------------------------------------------*
        LDR       A1, $C$CON25          ; [DPU_V7M3_PIPE] |1451| 
        LDR       A1, [A1, #0]          ; [DPU_V7M3_PIPE] |1451| 
        B         ||$C$L38||            ; [DPU_V7M3_PIPE] |1451| 
        ; BRANCH OCCURS {||$C$L38||}     ; [] |1451| 
;* --------------------------------------------------------------------------*
||$C$L37||:    
        LDR       A1, [SP, #0]          ; [DPU_V7M3_PIPE] |1451| 
;* --------------------------------------------------------------------------*
||$C$L38||:    
        STR       A1, [SP, #4]          ; [DPU_V7M3_PIPE] |1451| 
	.dwpsn	file "../Tivaware_Dep/third_party/FreeRTOS/Source/tasks.c",line 1452,column 4,is_stmt,isa 1
        LDR       A1, [SP, #4]          ; [DPU_V7M3_PIPE] |1452| 
        LDR       A1, [A1, #44]         ; [DPU_V7M3_PIPE] |1452| 
        STR       A1, [SP, #8]          ; [DPU_V7M3_PIPE] |1452| 
	.dwpsn	file "../Tivaware_Dep/third_party/FreeRTOS/Source/tasks.c",line 1454,column 3,is_stmt,isa 1
$C$DW$153	.dwtag  DW_TAG_TI_branch
	.dwattr $C$DW$153, DW_AT_low_pc(0x00)
	.dwattr $C$DW$153, DW_AT_name("vPortExitCritical")
	.dwattr $C$DW$153, DW_AT_TI_call

        BL        vPortExitCritical     ; [DPU_V7M3_PIPE] |1454| 
        ; CALL OCCURS {vPortExitCritical }  ; [] |1454| 
	.dwpsn	file "../Tivaware_Dep/third_party/FreeRTOS/Source/tasks.c",line 1456,column 3,is_stmt,isa 1
        LDR       A1, [SP, #8]          ; [DPU_V7M3_PIPE] |1456| 
	.dwpsn	file "../Tivaware_Dep/third_party/FreeRTOS/Source/tasks.c",line 1457,column 2,is_stmt,isa 1
$C$DW$154	.dwtag  DW_TAG_TI_branch
	.dwattr $C$DW$154, DW_AT_low_pc(0x00)
	.dwattr $C$DW$154, DW_AT_TI_return

        POP       {A2, A3, A4, PC}      ; [DPU_V7M3_PIPE] 
	.dwcfi	cfa_offset, 0
	.dwcfi	restore_reg, 3
	.dwcfi	restore_reg, 2
	.dwcfi	restore_reg, 1
        ; BRANCH OCCURS                  ; [] 
	.dwattr $C$DW$147, DW_AT_TI_end_file("../Tivaware_Dep/third_party/FreeRTOS/Source/tasks.c")
	.dwattr $C$DW$147, DW_AT_TI_end_line(0x5b1)
	.dwattr $C$DW$147, DW_AT_TI_end_column(0x02)
	.dwendentry
	.dwendtag $C$DW$147

	.sect	".text:uxTaskPriorityGetFromISR"
	.clink
	.thumbfunc uxTaskPriorityGetFromISR
	.thumb
	.global	uxTaskPriorityGetFromISR

$C$DW$155	.dwtag  DW_TAG_subprogram
	.dwattr $C$DW$155, DW_AT_name("uxTaskPriorityGetFromISR")
	.dwattr $C$DW$155, DW_AT_low_pc(uxTaskPriorityGetFromISR)
	.dwattr $C$DW$155, DW_AT_high_pc(0x00)
	.dwattr $C$DW$155, DW_AT_TI_symbol_name("uxTaskPriorityGetFromISR")
	.dwattr $C$DW$155, DW_AT_external
	.dwattr $C$DW$155, DW_AT_type(*$C$DW$T$26)
	.dwattr $C$DW$155, DW_AT_TI_begin_file("../Tivaware_Dep/third_party/FreeRTOS/Source/tasks.c")
	.dwattr $C$DW$155, DW_AT_TI_begin_line(0x5b8)
	.dwattr $C$DW$155, DW_AT_TI_begin_column(0x0e)
	.dwattr $C$DW$155, DW_AT_decl_file("../Tivaware_Dep/third_party/FreeRTOS/Source/tasks.c")
	.dwattr $C$DW$155, DW_AT_decl_line(0x5b8)
	.dwattr $C$DW$155, DW_AT_decl_column(0x0e)
	.dwattr $C$DW$155, DW_AT_TI_max_frame_size(0x10)
	.dwpsn	file "../Tivaware_Dep/third_party/FreeRTOS/Source/tasks.c",line 1465,column 2,is_stmt,address uxTaskPriorityGetFromISR,isa 1

	.dwfde $C$DW$CIE, uxTaskPriorityGetFromISR
$C$DW$156	.dwtag  DW_TAG_formal_parameter
	.dwattr $C$DW$156, DW_AT_name("xTask")
	.dwattr $C$DW$156, DW_AT_TI_symbol_name("xTask")
	.dwattr $C$DW$156, DW_AT_type(*$C$DW$T$161)
	.dwattr $C$DW$156, DW_AT_location[DW_OP_reg0]


;*****************************************************************************
;* FUNCTION NAME: uxTaskPriorityGetFromISR                                   *
;*                                                                           *
;*   Regs Modified     : A1,A2,SP,SR                                         *
;*   Regs Used         : A1,A2,SP,LR,SR                                      *
;*   Local Frame Size  : 0 Args + 16 Auto + 0 Save = 16 byte                 *
;*****************************************************************************
uxTaskPriorityGetFromISR:
;* --------------------------------------------------------------------------*
	.dwcfi	cfa_offset, 0
        SUB       SP, SP, #16           ; [DPU_V7M3_PIPE] 
	.dwcfi	cfa_offset, 16
$C$DW$157	.dwtag  DW_TAG_variable
	.dwattr $C$DW$157, DW_AT_name("xTask")
	.dwattr $C$DW$157, DW_AT_TI_symbol_name("xTask")
	.dwattr $C$DW$157, DW_AT_type(*$C$DW$T$161)
	.dwattr $C$DW$157, DW_AT_location[DW_OP_breg13 0]

$C$DW$158	.dwtag  DW_TAG_variable
	.dwattr $C$DW$158, DW_AT_name("pxTCB")
	.dwattr $C$DW$158, DW_AT_TI_symbol_name("pxTCB")
	.dwattr $C$DW$158, DW_AT_type(*$C$DW$T$339)
	.dwattr $C$DW$158, DW_AT_location[DW_OP_breg13 4]

$C$DW$159	.dwtag  DW_TAG_variable
	.dwattr $C$DW$159, DW_AT_name("uxReturn")
	.dwattr $C$DW$159, DW_AT_TI_symbol_name("uxReturn")
	.dwattr $C$DW$159, DW_AT_type(*$C$DW$T$26)
	.dwattr $C$DW$159, DW_AT_location[DW_OP_breg13 8]

$C$DW$160	.dwtag  DW_TAG_variable
	.dwattr $C$DW$160, DW_AT_name("uxSavedInterruptState")
	.dwattr $C$DW$160, DW_AT_TI_symbol_name("uxSavedInterruptState")
	.dwattr $C$DW$160, DW_AT_type(*$C$DW$T$26)
	.dwattr $C$DW$160, DW_AT_location[DW_OP_breg13 12]

        STR       A1, [SP, #0]          ; [DPU_V7M3_PIPE] |1465| 
	.dwpsn	file "../Tivaware_Dep/third_party/FreeRTOS/Source/tasks.c",line 1487,column 3,is_stmt,isa 1
        MRS       A2, BASEPRI           ; [DPU_V7M3_PIPE] |1487| 
        MOVS      A1, #160              ; [DPU_V7M3_PIPE] |1487| 
        MSR       BASEPRI, A1           ; [DPU_V7M3_PIPE] |1487| 
        STR       A2, [SP, #12]         ; [DPU_V7M3_PIPE] |1487| 
	.dwpsn	file "../Tivaware_Dep/third_party/FreeRTOS/Source/tasks.c",line 1487,column 27,is_stmt,isa 1
	dsb
	isb
	.dwpsn	file "../Tivaware_Dep/third_party/FreeRTOS/Source/tasks.c",line 1491,column 4,is_stmt,isa 1
        LDR       A1, [SP, #0]          ; [DPU_V7M3_PIPE] |1491| 
        CBNZ      A1, ||$C$L39||        ; [] 
        ; BRANCHCC OCCURS {||$C$L39||}   ; [] |1491| 
;* --------------------------------------------------------------------------*
        LDR       A1, $C$CON26          ; [DPU_V7M3_PIPE] |1491| 
        LDR       A1, [A1, #0]          ; [DPU_V7M3_PIPE] |1491| 
        B         ||$C$L40||            ; [DPU_V7M3_PIPE] |1491| 
        ; BRANCH OCCURS {||$C$L40||}     ; [] |1491| 
;* --------------------------------------------------------------------------*
||$C$L39||:    
        LDR       A1, [SP, #0]          ; [DPU_V7M3_PIPE] |1491| 
;* --------------------------------------------------------------------------*
||$C$L40||:    
        STR       A1, [SP, #4]          ; [DPU_V7M3_PIPE] |1491| 
	.dwpsn	file "../Tivaware_Dep/third_party/FreeRTOS/Source/tasks.c",line 1492,column 4,is_stmt,isa 1
        LDR       A1, [SP, #4]          ; [DPU_V7M3_PIPE] |1492| 
        LDR       A1, [A1, #44]         ; [DPU_V7M3_PIPE] |1492| 
        STR       A1, [SP, #8]          ; [DPU_V7M3_PIPE] |1492| 
	.dwpsn	file "../Tivaware_Dep/third_party/FreeRTOS/Source/tasks.c",line 1494,column 3,is_stmt,isa 1
        LDR       A1, [SP, #12]         ; [DPU_V7M3_PIPE] |1494| 
        MSR       BASEPRI, A1           ; [DPU_V7M3_PIPE] |1494| 
	.dwpsn	file "../Tivaware_Dep/third_party/FreeRTOS/Source/tasks.c",line 1496,column 3,is_stmt,isa 1
        LDR       A1, [SP, #8]          ; [DPU_V7M3_PIPE] |1496| 
	.dwpsn	file "../Tivaware_Dep/third_party/FreeRTOS/Source/tasks.c",line 1497,column 2,is_stmt,isa 1
        ADD       SP, SP, #16           ; [DPU_V7M3_PIPE] 
	.dwcfi	cfa_offset, 0
$C$DW$161	.dwtag  DW_TAG_TI_branch
	.dwattr $C$DW$161, DW_AT_low_pc(0x00)
	.dwattr $C$DW$161, DW_AT_TI_return

        BX        LR                    ; [DPU_V7M3_PIPE] 
        ; BRANCH OCCURS                  ; [] 
	.dwattr $C$DW$155, DW_AT_TI_end_file("../Tivaware_Dep/third_party/FreeRTOS/Source/tasks.c")
	.dwattr $C$DW$155, DW_AT_TI_end_line(0x5d9)
	.dwattr $C$DW$155, DW_AT_TI_end_column(0x02)
	.dwendentry
	.dwendtag $C$DW$155

	.sect	".text:vTaskPrioritySet"
	.clink
	.thumbfunc vTaskPrioritySet
	.thumb
	.global	vTaskPrioritySet

$C$DW$162	.dwtag  DW_TAG_subprogram
	.dwattr $C$DW$162, DW_AT_name("vTaskPrioritySet")
	.dwattr $C$DW$162, DW_AT_low_pc(vTaskPrioritySet)
	.dwattr $C$DW$162, DW_AT_high_pc(0x00)
	.dwattr $C$DW$162, DW_AT_TI_symbol_name("vTaskPrioritySet")
	.dwattr $C$DW$162, DW_AT_external
	.dwattr $C$DW$162, DW_AT_TI_begin_file("../Tivaware_Dep/third_party/FreeRTOS/Source/tasks.c")
	.dwattr $C$DW$162, DW_AT_TI_begin_line(0x5e0)
	.dwattr $C$DW$162, DW_AT_TI_begin_column(0x07)
	.dwattr $C$DW$162, DW_AT_decl_file("../Tivaware_Dep/third_party/FreeRTOS/Source/tasks.c")
	.dwattr $C$DW$162, DW_AT_decl_line(0x5e0)
	.dwattr $C$DW$162, DW_AT_decl_column(0x07)
	.dwattr $C$DW$162, DW_AT_TI_max_frame_size(0x20)
	.dwpsn	file "../Tivaware_Dep/third_party/FreeRTOS/Source/tasks.c",line 1505,column 2,is_stmt,address vTaskPrioritySet,isa 1

	.dwfde $C$DW$CIE, vTaskPrioritySet
$C$DW$163	.dwtag  DW_TAG_formal_parameter
	.dwattr $C$DW$163, DW_AT_name("xTask")
	.dwattr $C$DW$163, DW_AT_TI_symbol_name("xTask")
	.dwattr $C$DW$163, DW_AT_type(*$C$DW$T$89)
	.dwattr $C$DW$163, DW_AT_location[DW_OP_reg0]

$C$DW$164	.dwtag  DW_TAG_formal_parameter
	.dwattr $C$DW$164, DW_AT_name("uxNewPriority")
	.dwattr $C$DW$164, DW_AT_TI_symbol_name("uxNewPriority")
	.dwattr $C$DW$164, DW_AT_type(*$C$DW$T$26)
	.dwattr $C$DW$164, DW_AT_location[DW_OP_reg1]


;*****************************************************************************
;* FUNCTION NAME: vTaskPrioritySet                                           *
;*                                                                           *
;*   Regs Modified     : A1,A2,A3,A4,V1,V9,SP,LR,SR,D0,D0_hi,D1,D1_hi,D2,    *
;*                           D2_hi,D3,D3_hi,D4,D4_hi,D5,D5_hi,D6,D6_hi,D7,   *
;*                           D7_hi,FPEXC,FPSCR                               *
;*   Regs Used         : A1,A2,A3,A4,V1,V9,SP,LR,SR,D0,D0_hi,D1,D1_hi,D2,    *
;*                           D2_hi,D3,D3_hi,D4,D4_hi,D5,D5_hi,D6,D6_hi,D7,   *
;*                           D7_hi,FPEXC,FPSCR                               *
;*   Local Frame Size  : 0 Args + 24 Auto + 8 Save = 32 byte                 *
;*****************************************************************************
vTaskPrioritySet:
;* --------------------------------------------------------------------------*
	.dwcfi	cfa_offset, 0
        PUSH      {V1, LR}              ; [DPU_V7M3_PIPE] 
	.dwcfi	cfa_offset, 8
	.dwcfi	save_reg_to_mem, 14, -4
	.dwcfi	save_reg_to_mem, 4, -8
        SUB       SP, SP, #24           ; [DPU_V7M3_PIPE] 
	.dwcfi	cfa_offset, 32
$C$DW$165	.dwtag  DW_TAG_variable
	.dwattr $C$DW$165, DW_AT_name("xTask")
	.dwattr $C$DW$165, DW_AT_TI_symbol_name("xTask")
	.dwattr $C$DW$165, DW_AT_type(*$C$DW$T$89)
	.dwattr $C$DW$165, DW_AT_location[DW_OP_breg13 0]

$C$DW$166	.dwtag  DW_TAG_variable
	.dwattr $C$DW$166, DW_AT_name("uxNewPriority")
	.dwattr $C$DW$166, DW_AT_TI_symbol_name("uxNewPriority")
	.dwattr $C$DW$166, DW_AT_type(*$C$DW$T$26)
	.dwattr $C$DW$166, DW_AT_location[DW_OP_breg13 4]

$C$DW$167	.dwtag  DW_TAG_variable
	.dwattr $C$DW$167, DW_AT_name("pxTCB")
	.dwattr $C$DW$167, DW_AT_TI_symbol_name("pxTCB")
	.dwattr $C$DW$167, DW_AT_type(*$C$DW$T$132)
	.dwattr $C$DW$167, DW_AT_location[DW_OP_breg13 8]

$C$DW$168	.dwtag  DW_TAG_variable
	.dwattr $C$DW$168, DW_AT_name("uxCurrentBasePriority")
	.dwattr $C$DW$168, DW_AT_TI_symbol_name("uxCurrentBasePriority")
	.dwattr $C$DW$168, DW_AT_type(*$C$DW$T$26)
	.dwattr $C$DW$168, DW_AT_location[DW_OP_breg13 12]

$C$DW$169	.dwtag  DW_TAG_variable
	.dwattr $C$DW$169, DW_AT_name("uxPriorityUsedOnEntry")
	.dwattr $C$DW$169, DW_AT_TI_symbol_name("uxPriorityUsedOnEntry")
	.dwattr $C$DW$169, DW_AT_type(*$C$DW$T$26)
	.dwattr $C$DW$169, DW_AT_location[DW_OP_breg13 16]

$C$DW$170	.dwtag  DW_TAG_variable
	.dwattr $C$DW$170, DW_AT_name("xYieldRequired")
	.dwattr $C$DW$170, DW_AT_TI_symbol_name("xYieldRequired")
	.dwattr $C$DW$170, DW_AT_type(*$C$DW$T$93)
	.dwattr $C$DW$170, DW_AT_location[DW_OP_breg13 20]

        STR       A2, [SP, #4]          ; [DPU_V7M3_PIPE] |1505| 
        STR       A1, [SP, #0]          ; [DPU_V7M3_PIPE] |1505| 
	.dwpsn	file "../Tivaware_Dep/third_party/FreeRTOS/Source/tasks.c",line 1508,column 28,is_stmt,isa 1
        MOVS      A1, #0                ; [DPU_V7M3_PIPE] |1508| 
        STR       A1, [SP, #20]         ; [DPU_V7M3_PIPE] |1508| 
	.dwpsn	file "../Tivaware_Dep/third_party/FreeRTOS/Source/tasks.c",line 1513,column 3,is_stmt,isa 1
        LDR       A1, [SP, #4]          ; [DPU_V7M3_PIPE] |1513| 
        CMP       A1, #16               ; [DPU_V7M3_PIPE] |1513| 
        BCC       ||$C$L41||            ; [DPU_V7M3_PIPE] |1513| 
        ; BRANCHCC OCCURS {||$C$L41||}   ; [] |1513| 
;* --------------------------------------------------------------------------*
	.dwpsn	file "../Tivaware_Dep/third_party/FreeRTOS/Source/tasks.c",line 1515,column 4,is_stmt,isa 1
        MOVS      A1, #15               ; [DPU_V7M3_PIPE] |1515| 
        STR       A1, [SP, #4]          ; [DPU_V7M3_PIPE] |1515| 
	.dwpsn	file "../Tivaware_Dep/third_party/FreeRTOS/Source/tasks.c",line 1516,column 3,is_stmt,isa 1
;* --------------------------------------------------------------------------*
||$C$L41||:    
	.dwpsn	file "../Tivaware_Dep/third_party/FreeRTOS/Source/tasks.c",line 1522,column 3,is_stmt,isa 1
$C$DW$171	.dwtag  DW_TAG_TI_branch
	.dwattr $C$DW$171, DW_AT_low_pc(0x00)
	.dwattr $C$DW$171, DW_AT_name("vPortEnterCritical")
	.dwattr $C$DW$171, DW_AT_TI_call

        BL        vPortEnterCritical    ; [DPU_V7M3_PIPE] |1522| 
        ; CALL OCCURS {vPortEnterCritical }  ; [] |1522| 
	.dwpsn	file "../Tivaware_Dep/third_party/FreeRTOS/Source/tasks.c",line 1526,column 4,is_stmt,isa 1
        LDR       A1, [SP, #0]          ; [DPU_V7M3_PIPE] |1526| 
        CBNZ      A1, ||$C$L42||        ; [] 
        ; BRANCHCC OCCURS {||$C$L42||}   ; [] |1526| 
;* --------------------------------------------------------------------------*
        LDR       A1, $C$CON27          ; [DPU_V7M3_PIPE] |1526| 
        LDR       A1, [A1, #0]          ; [DPU_V7M3_PIPE] |1526| 
        B         ||$C$L43||            ; [DPU_V7M3_PIPE] |1526| 
        ; BRANCH OCCURS {||$C$L43||}     ; [] |1526| 
;* --------------------------------------------------------------------------*
||$C$L42||:    
        LDR       A1, [SP, #0]          ; [DPU_V7M3_PIPE] |1526| 
;* --------------------------------------------------------------------------*
||$C$L43||:    
        STR       A1, [SP, #8]          ; [DPU_V7M3_PIPE] |1526| 
	.dwpsn	file "../Tivaware_Dep/third_party/FreeRTOS/Source/tasks.c",line 1532,column 5,is_stmt,isa 1
        LDR       A1, [SP, #8]          ; [DPU_V7M3_PIPE] |1532| 
        LDR       A1, [A1, #80]         ; [DPU_V7M3_PIPE] |1532| 
        STR       A1, [SP, #12]         ; [DPU_V7M3_PIPE] |1532| 
	.dwpsn	file "../Tivaware_Dep/third_party/FreeRTOS/Source/tasks.c",line 1540,column 4,is_stmt,isa 1
        LDR       A2, [SP, #12]         ; [DPU_V7M3_PIPE] |1540| 
        LDR       A1, [SP, #4]          ; [DPU_V7M3_PIPE] |1540| 
        CMP       A1, A2                ; [DPU_V7M3_PIPE] |1540| 
        BEQ       ||$C$L53||            ; [DPU_V7M3_PIPE] |1540| 
        ; BRANCHCC OCCURS {||$C$L53||}   ; [] |1540| 
;* --------------------------------------------------------------------------*
	.dwpsn	file "../Tivaware_Dep/third_party/FreeRTOS/Source/tasks.c",line 1544,column 5,is_stmt,isa 1
        LDR       A1, [SP, #12]         ; [DPU_V7M3_PIPE] |1544| 
        LDR       A2, [SP, #4]          ; [DPU_V7M3_PIPE] |1544| 
        CMP       A1, A2                ; [DPU_V7M3_PIPE] |1544| 
        BCS       ||$C$L44||            ; [DPU_V7M3_PIPE] |1544| 
        ; BRANCHCC OCCURS {||$C$L44||}   ; [] |1544| 
;* --------------------------------------------------------------------------*
	.dwpsn	file "../Tivaware_Dep/third_party/FreeRTOS/Source/tasks.c",line 1546,column 6,is_stmt,isa 1
        LDR       A1, $C$CON27          ; [DPU_V7M3_PIPE] |1546| 
        LDR       A2, [SP, #8]          ; [DPU_V7M3_PIPE] |1546| 
        LDR       A1, [A1, #0]          ; [DPU_V7M3_PIPE] |1546| 
        CMP       A1, A2                ; [DPU_V7M3_PIPE] |1546| 
        BEQ       ||$C$L45||            ; [DPU_V7M3_PIPE] |1546| 
        ; BRANCHCC OCCURS {||$C$L45||}   ; [] |1546| 
;* --------------------------------------------------------------------------*
	.dwpsn	file "../Tivaware_Dep/third_party/FreeRTOS/Source/tasks.c",line 1551,column 7,is_stmt,isa 1
        LDR       A1, $C$CON27          ; [DPU_V7M3_PIPE] |1551| 
        LDR       A1, [A1, #0]          ; [DPU_V7M3_PIPE] |1551| 
        LDR       A2, [SP, #4]          ; [DPU_V7M3_PIPE] |1551| 
        LDR       A1, [A1, #44]         ; [DPU_V7M3_PIPE] |1551| 
        CMP       A1, A2                ; [DPU_V7M3_PIPE] |1551| 
        BHI       ||$C$L45||            ; [DPU_V7M3_PIPE] |1551| 
        ; BRANCHCC OCCURS {||$C$L45||}   ; [] |1551| 
;* --------------------------------------------------------------------------*
	.dwpsn	file "../Tivaware_Dep/third_party/FreeRTOS/Source/tasks.c",line 1553,column 8,is_stmt,isa 1
        MOVS      A1, #1                ; [DPU_V7M3_PIPE] |1553| 
        STR       A1, [SP, #20]         ; [DPU_V7M3_PIPE] |1553| 
	.dwpsn	file "../Tivaware_Dep/third_party/FreeRTOS/Source/tasks.c",line 1554,column 7,is_stmt,isa 1
        B         ||$C$L45||            ; [DPU_V7M3_PIPE] |1554| 
        ; BRANCH OCCURS {||$C$L45||}     ; [] |1554| 
;* --------------------------------------------------------------------------*
;* --------------------------------------------------------------------------*
||$C$L44||:    
	.dwpsn	file "../Tivaware_Dep/third_party/FreeRTOS/Source/tasks.c",line 1567,column 10,is_stmt,isa 1
        LDR       A1, $C$CON27          ; [DPU_V7M3_PIPE] |1567| 
        LDR       A2, [SP, #8]          ; [DPU_V7M3_PIPE] |1567| 
        LDR       A1, [A1, #0]          ; [DPU_V7M3_PIPE] |1567| 
        CMP       A1, A2                ; [DPU_V7M3_PIPE] |1567| 
        BNE       ||$C$L45||            ; [DPU_V7M3_PIPE] |1567| 
        ; BRANCHCC OCCURS {||$C$L45||}   ; [] |1567| 
;* --------------------------------------------------------------------------*
	.dwpsn	file "../Tivaware_Dep/third_party/FreeRTOS/Source/tasks.c",line 1572,column 6,is_stmt,isa 1
        MOVS      A1, #1                ; [DPU_V7M3_PIPE] |1572| 
        STR       A1, [SP, #20]         ; [DPU_V7M3_PIPE] |1572| 
	.dwpsn	file "../Tivaware_Dep/third_party/FreeRTOS/Source/tasks.c",line 1573,column 5,is_stmt,isa 1
;* --------------------------------------------------------------------------*
||$C$L45||:    
	.dwpsn	file "../Tivaware_Dep/third_party/FreeRTOS/Source/tasks.c",line 1584,column 5,is_stmt,isa 1
        LDR       A1, [SP, #8]          ; [DPU_V7M3_PIPE] |1584| 
        LDR       A1, [A1, #44]         ; [DPU_V7M3_PIPE] |1584| 
        STR       A1, [SP, #16]         ; [DPU_V7M3_PIPE] |1584| 
	.dwpsn	file "../Tivaware_Dep/third_party/FreeRTOS/Source/tasks.c",line 1590,column 6,is_stmt,isa 1
        LDR       A2, [SP, #8]          ; [DPU_V7M3_PIPE] |1590| 
        LDR       A1, [SP, #8]          ; [DPU_V7M3_PIPE] |1590| 
        LDR       A2, [A2, #80]         ; [DPU_V7M3_PIPE] |1590| 
        LDR       A1, [A1, #44]         ; [DPU_V7M3_PIPE] |1590| 
        CMP       A1, A2                ; [DPU_V7M3_PIPE] |1590| 
        BNE       ||$C$L46||            ; [DPU_V7M3_PIPE] |1590| 
        ; BRANCHCC OCCURS {||$C$L46||}   ; [] |1590| 
;* --------------------------------------------------------------------------*
	.dwpsn	file "../Tivaware_Dep/third_party/FreeRTOS/Source/tasks.c",line 1592,column 7,is_stmt,isa 1
        LDR       A1, [SP, #4]          ; [DPU_V7M3_PIPE] |1592| 
        LDR       A2, [SP, #8]          ; [DPU_V7M3_PIPE] |1592| 
        STR       A1, [A2, #44]         ; [DPU_V7M3_PIPE] |1592| 
	.dwpsn	file "../Tivaware_Dep/third_party/FreeRTOS/Source/tasks.c",line 1593,column 6,is_stmt,isa 1
;* --------------------------------------------------------------------------*
||$C$L46||:    
	.dwpsn	file "../Tivaware_Dep/third_party/FreeRTOS/Source/tasks.c",line 1600,column 6,is_stmt,isa 1
        LDR       A1, [SP, #4]          ; [DPU_V7M3_PIPE] |1600| 
        LDR       A2, [SP, #8]          ; [DPU_V7M3_PIPE] |1600| 
        STR       A1, [A2, #80]         ; [DPU_V7M3_PIPE] |1600| 
	.dwpsn	file "../Tivaware_Dep/third_party/FreeRTOS/Source/tasks.c",line 1610,column 5,is_stmt,isa 1
        LDR       A1, [SP, #8]          ; [DPU_V7M3_PIPE] |1610| 
        LDR       A1, [A1, #24]         ; [DPU_V7M3_PIPE] |1610| 
        LSRS      A1, A1, #32           ; [DPU_V7M3_PIPE] |1610| 
        BCS       ||$C$L47||            ; [DPU_V7M3_PIPE] |1610| 
        ; BRANCHCC OCCURS {||$C$L47||}   ; [] |1610| 
;* --------------------------------------------------------------------------*
	.dwpsn	file "../Tivaware_Dep/third_party/FreeRTOS/Source/tasks.c",line 1612,column 6,is_stmt,isa 1
        LDR       A1, [SP, #4]          ; [DPU_V7M3_PIPE] |1612| 
        LDR       A2, [SP, #8]          ; [DPU_V7M3_PIPE] |1612| 
        RSB       A1, A1, #16           ; [DPU_V7M3_PIPE] |1612| 
        STR       A1, [A2, #24]         ; [DPU_V7M3_PIPE] |1612| 
	.dwpsn	file "../Tivaware_Dep/third_party/FreeRTOS/Source/tasks.c",line 1613,column 5,is_stmt,isa 1
;* --------------------------------------------------------------------------*
||$C$L47||:    
	.dwpsn	file "../Tivaware_Dep/third_party/FreeRTOS/Source/tasks.c",line 1623,column 5,is_stmt,isa 1
        LDR       A1, [SP, #8]          ; [DPU_V7M3_PIPE] |1623| 
        LDR       A4, [SP, #16]         ; [DPU_V7M3_PIPE] |1623| 
        LDR       A3, $C$CON28          ; [DPU_V7M3_PIPE] |1623| 
        LDR       A2, [A1, #20]         ; [DPU_V7M3_PIPE] |1623| 
        LSLS      A1, A4, #2            ; [DPU_V7M3_PIPE] |1623| 
        ADD       A1, A1, A4, LSL #4    ; [DPU_V7M3_PIPE] |1623| 
        ADDS      A1, A1, A3            ; [DPU_V7M3_PIPE] |1623| 
        CMP       A1, A2                ; [DPU_V7M3_PIPE] |1623| 
        BNE       ||$C$L48||            ; [DPU_V7M3_PIPE] |1623| 
        ; BRANCHCC OCCURS {||$C$L48||}   ; [] |1623| 
;* --------------------------------------------------------------------------*
        MOVS      A1, #1                ; [DPU_V7M3_PIPE] |1623| 
        B         ||$C$L49||            ; [DPU_V7M3_PIPE] |1623| 
        ; BRANCH OCCURS {||$C$L49||}     ; [] |1623| 
;* --------------------------------------------------------------------------*
||$C$L48||:    
        MOVS      A1, #0                ; [DPU_V7M3_PIPE] |1623| 
;* --------------------------------------------------------------------------*
||$C$L49||:    
        CBZ       A1, ||$C$L51||        ; [] 
        ; BRANCHCC OCCURS {||$C$L51||}   ; [] |1623| 
;* --------------------------------------------------------------------------*
	.dwpsn	file "../Tivaware_Dep/third_party/FreeRTOS/Source/tasks.c",line 1628,column 6,is_stmt,isa 1
        LDR       A1, [SP, #8]          ; [DPU_V7M3_PIPE] |1628| 
        ADDS      A1, A1, #4            ; [DPU_V7M3_PIPE] |1628| 
$C$DW$172	.dwtag  DW_TAG_TI_branch
	.dwattr $C$DW$172, DW_AT_low_pc(0x00)
	.dwattr $C$DW$172, DW_AT_name("uxListRemove")
	.dwattr $C$DW$172, DW_AT_TI_call

        BL        uxListRemove          ; [DPU_V7M3_PIPE] |1628| 
        ; CALL OCCURS {uxListRemove }    ; [] |1628| 
        CBNZ      A1, ||$C$L50||        ; [] 
        ; BRANCHCC OCCURS {||$C$L50||}   ; [] |1628| 
;* --------------------------------------------------------------------------*
	.dwpsn	file "../Tivaware_Dep/third_party/FreeRTOS/Source/tasks.c",line 1633,column 7,is_stmt,isa 1
        LDR       A3, $C$CON29          ; [DPU_V7M3_PIPE] |1633| 
        LDR       A4, [SP, #16]         ; [DPU_V7M3_PIPE] |1633| 
        LDR       A2, [A3, #0]          ; [DPU_V7M3_PIPE] |1633| 
        MOVS      A1, #1                ; [DPU_V7M3_PIPE] |1633| 
        LSLS      A1, A1, A4            ; [DPU_V7M3_PIPE] |1633| 
        BICS      A2, A2, A1            ; [DPU_V7M3_PIPE] |1633| 
        STR       A2, [A3, #0]          ; [DPU_V7M3_PIPE] |1633| 
	.dwpsn	file "../Tivaware_Dep/third_party/FreeRTOS/Source/tasks.c",line 1634,column 6,is_stmt,isa 1
;* --------------------------------------------------------------------------*
||$C$L50||:    
	.dwpsn	file "../Tivaware_Dep/third_party/FreeRTOS/Source/tasks.c",line 1639,column 6,is_stmt,isa 1
        LDR       A1, [SP, #8]          ; [DPU_V7M3_PIPE] |1639| 
        LDR       A3, $C$CON29          ; [DPU_V7M3_PIPE] |1639| 
        LDR       V1, [A1, #44]         ; [DPU_V7M3_PIPE] |1639| 
        LDR       A4, [A3, #0]          ; [DPU_V7M3_PIPE] |1639| 
        LDR       A2, [SP, #8]          ; [DPU_V7M3_PIPE] |1639| 
        MOVS      A1, #1                ; [DPU_V7M3_PIPE] |1639| 
        LSLS      A1, A1, V1            ; [DPU_V7M3_PIPE] |1639| 
        ORRS      A1, A1, A4            ; [DPU_V7M3_PIPE] |1639| 
        STR       A1, [A3, #0]          ; [DPU_V7M3_PIPE] |1639| 
        LDR       A4, $C$CON28          ; [DPU_V7M3_PIPE] |1639| 
        LDR       A3, [A2, #44]         ; [DPU_V7M3_PIPE] |1639| 
        LDR       A2, [SP, #8]          ; [DPU_V7M3_PIPE] |1639| 
        LSLS      A1, A3, #2            ; [DPU_V7M3_PIPE] |1639| 
        ADDS      A2, A2, #4            ; [DPU_V7M3_PIPE] |1639| 
        ADD       A1, A1, A3, LSL #4    ; [DPU_V7M3_PIPE] |1639| 
        ADDS      A1, A1, A4            ; [DPU_V7M3_PIPE] |1639| 
$C$DW$173	.dwtag  DW_TAG_TI_branch
	.dwattr $C$DW$173, DW_AT_low_pc(0x00)
	.dwattr $C$DW$173, DW_AT_name("vListInsertEnd")
	.dwattr $C$DW$173, DW_AT_TI_call

        BL        vListInsertEnd        ; [DPU_V7M3_PIPE] |1639| 
        ; CALL OCCURS {vListInsertEnd }  ; [] |1639| 
	.dwpsn	file "../Tivaware_Dep/third_party/FreeRTOS/Source/tasks.c",line 1640,column 5,is_stmt,isa 1
;* --------------------------------------------------------------------------*
||$C$L51||:    
	.dwpsn	file "../Tivaware_Dep/third_party/FreeRTOS/Source/tasks.c",line 1646,column 5,is_stmt,isa 1
        LDR       A1, [SP, #20]         ; [DPU_V7M3_PIPE] |1646| 
        CBZ       A1, ||$C$L52||        ; [] 
        ; BRANCHCC OCCURS {||$C$L52||}   ; [] |1646| 
;* --------------------------------------------------------------------------*
	.dwpsn	file "../Tivaware_Dep/third_party/FreeRTOS/Source/tasks.c",line 1648,column 6,is_stmt,isa 1
        LDR       A2, $C$CON30          ; [DPU_V7M3_PIPE] |1648| 
        MOV       A1, #268435456        ; [DPU_V7M3_PIPE] |1648| 
        STR       A1, [A2, #0]          ; [DPU_V7M3_PIPE] |1648| 
	dsb
	isb
	.dwpsn	file "../Tivaware_Dep/third_party/FreeRTOS/Source/tasks.c",line 1649,column 5,is_stmt,isa 1
;* --------------------------------------------------------------------------*
||$C$L52||:    
	.dwpsn	file "../Tivaware_Dep/third_party/FreeRTOS/Source/tasks.c",line 1657,column 5,is_stmt,isa 1
;* --------------------------------------------------------------------------*
||$C$L53||:    
	.dwpsn	file "../Tivaware_Dep/third_party/FreeRTOS/Source/tasks.c",line 1660,column 3,is_stmt,isa 1
$C$DW$174	.dwtag  DW_TAG_TI_branch
	.dwattr $C$DW$174, DW_AT_low_pc(0x00)
	.dwattr $C$DW$174, DW_AT_name("vPortExitCritical")
	.dwattr $C$DW$174, DW_AT_TI_call

        BL        vPortExitCritical     ; [DPU_V7M3_PIPE] |1660| 
        ; CALL OCCURS {vPortExitCritical }  ; [] |1660| 
	.dwpsn	file "../Tivaware_Dep/third_party/FreeRTOS/Source/tasks.c",line 1661,column 2,is_stmt,isa 1
        ADD       SP, SP, #24           ; [DPU_V7M3_PIPE] 
	.dwcfi	cfa_offset, 8
$C$DW$175	.dwtag  DW_TAG_TI_branch
	.dwattr $C$DW$175, DW_AT_low_pc(0x00)
	.dwattr $C$DW$175, DW_AT_TI_return

        POP       {V1, PC}              ; [DPU_V7M3_PIPE] 
	.dwcfi	cfa_offset, 0
	.dwcfi	restore_reg, 4
        ; BRANCH OCCURS                  ; [] 
	.dwattr $C$DW$162, DW_AT_TI_end_file("../Tivaware_Dep/third_party/FreeRTOS/Source/tasks.c")
	.dwattr $C$DW$162, DW_AT_TI_end_line(0x67d)
	.dwattr $C$DW$162, DW_AT_TI_end_column(0x02)
	.dwendentry
	.dwendtag $C$DW$162

	.sect	".text:vTaskSuspend"
	.clink
	.thumbfunc vTaskSuspend
	.thumb
	.global	vTaskSuspend

$C$DW$176	.dwtag  DW_TAG_subprogram
	.dwattr $C$DW$176, DW_AT_name("vTaskSuspend")
	.dwattr $C$DW$176, DW_AT_low_pc(vTaskSuspend)
	.dwattr $C$DW$176, DW_AT_high_pc(0x00)
	.dwattr $C$DW$176, DW_AT_TI_symbol_name("vTaskSuspend")
	.dwattr $C$DW$176, DW_AT_external
	.dwattr $C$DW$176, DW_AT_TI_begin_file("../Tivaware_Dep/third_party/FreeRTOS/Source/tasks.c")
	.dwattr $C$DW$176, DW_AT_TI_begin_line(0x684)
	.dwattr $C$DW$176, DW_AT_TI_begin_column(0x07)
	.dwattr $C$DW$176, DW_AT_decl_file("../Tivaware_Dep/third_party/FreeRTOS/Source/tasks.c")
	.dwattr $C$DW$176, DW_AT_decl_line(0x684)
	.dwattr $C$DW$176, DW_AT_decl_column(0x07)
	.dwattr $C$DW$176, DW_AT_TI_max_frame_size(0x10)
	.dwpsn	file "../Tivaware_Dep/third_party/FreeRTOS/Source/tasks.c",line 1669,column 2,is_stmt,address vTaskSuspend,isa 1

	.dwfde $C$DW$CIE, vTaskSuspend
$C$DW$177	.dwtag  DW_TAG_formal_parameter
	.dwattr $C$DW$177, DW_AT_name("xTaskToSuspend")
	.dwattr $C$DW$177, DW_AT_TI_symbol_name("xTaskToSuspend")
	.dwattr $C$DW$177, DW_AT_type(*$C$DW$T$89)
	.dwattr $C$DW$177, DW_AT_location[DW_OP_reg0]


;*****************************************************************************
;* FUNCTION NAME: vTaskSuspend                                               *
;*                                                                           *
;*   Regs Modified     : A1,A2,A3,A4,V9,SP,LR,SR,D0,D0_hi,D1,D1_hi,D2,D2_hi, *
;*                           D3,D3_hi,D4,D4_hi,D5,D5_hi,D6,D6_hi,D7,D7_hi,   *
;*                           FPEXC,FPSCR                                     *
;*   Regs Used         : A1,A2,A3,A4,V9,SP,LR,SR,D0,D0_hi,D1,D1_hi,D2,D2_hi, *
;*                           D3,D3_hi,D4,D4_hi,D5,D5_hi,D6,D6_hi,D7,D7_hi,   *
;*                           FPEXC,FPSCR                                     *
;*   Local Frame Size  : 0 Args + 8 Auto + 4 Save = 12 byte                  *
;*****************************************************************************
vTaskSuspend:
;* --------------------------------------------------------------------------*
	.dwcfi	cfa_offset, 0
        PUSH      {A2, A3, A4, LR}      ; [DPU_V7M3_PIPE] 
	.dwcfi	cfa_offset, 16
	.dwcfi	save_reg_to_mem, 14, -4
	.dwcfi	save_reg_to_mem, 3, -8
	.dwcfi	save_reg_to_mem, 2, -12
	.dwcfi	save_reg_to_mem, 1, -16
$C$DW$178	.dwtag  DW_TAG_variable
	.dwattr $C$DW$178, DW_AT_name("xTaskToSuspend")
	.dwattr $C$DW$178, DW_AT_TI_symbol_name("xTaskToSuspend")
	.dwattr $C$DW$178, DW_AT_type(*$C$DW$T$89)
	.dwattr $C$DW$178, DW_AT_location[DW_OP_breg13 0]

$C$DW$179	.dwtag  DW_TAG_variable
	.dwattr $C$DW$179, DW_AT_name("pxTCB")
	.dwattr $C$DW$179, DW_AT_TI_symbol_name("pxTCB")
	.dwattr $C$DW$179, DW_AT_type(*$C$DW$T$132)
	.dwattr $C$DW$179, DW_AT_location[DW_OP_breg13 4]

        STR       A1, [SP, #0]          ; [DPU_V7M3_PIPE] |1669| 
	.dwpsn	file "../Tivaware_Dep/third_party/FreeRTOS/Source/tasks.c",line 1672,column 3,is_stmt,isa 1
$C$DW$180	.dwtag  DW_TAG_TI_branch
	.dwattr $C$DW$180, DW_AT_low_pc(0x00)
	.dwattr $C$DW$180, DW_AT_name("vPortEnterCritical")
	.dwattr $C$DW$180, DW_AT_TI_call

        BL        vPortEnterCritical    ; [DPU_V7M3_PIPE] |1672| 
        ; CALL OCCURS {vPortEnterCritical }  ; [] |1672| 
	.dwpsn	file "../Tivaware_Dep/third_party/FreeRTOS/Source/tasks.c",line 1676,column 4,is_stmt,isa 1
        LDR       A1, [SP, #0]          ; [DPU_V7M3_PIPE] |1676| 
        CBNZ      A1, ||$C$L54||        ; [] 
        ; BRANCHCC OCCURS {||$C$L54||}   ; [] |1676| 
;* --------------------------------------------------------------------------*
        LDR       A1, $C$CON31          ; [DPU_V7M3_PIPE] |1676| 
        LDR       A1, [A1, #0]          ; [DPU_V7M3_PIPE] |1676| 
        B         ||$C$L55||            ; [DPU_V7M3_PIPE] |1676| 
        ; BRANCH OCCURS {||$C$L55||}     ; [] |1676| 
;* --------------------------------------------------------------------------*
||$C$L54||:    
        LDR       A1, [SP, #0]          ; [DPU_V7M3_PIPE] |1676| 
;* --------------------------------------------------------------------------*
||$C$L55||:    
        STR       A1, [SP, #4]          ; [DPU_V7M3_PIPE] |1676| 
	.dwpsn	file "../Tivaware_Dep/third_party/FreeRTOS/Source/tasks.c",line 1682,column 4,is_stmt,isa 1
        LDR       A1, [SP, #4]          ; [DPU_V7M3_PIPE] |1682| 
        ADDS      A1, A1, #4            ; [DPU_V7M3_PIPE] |1682| 
$C$DW$181	.dwtag  DW_TAG_TI_branch
	.dwattr $C$DW$181, DW_AT_low_pc(0x00)
	.dwattr $C$DW$181, DW_AT_name("uxListRemove")
	.dwattr $C$DW$181, DW_AT_TI_call

        BL        uxListRemove          ; [DPU_V7M3_PIPE] |1682| 
        ; CALL OCCURS {uxListRemove }    ; [] |1682| 
        CBNZ      A1, ||$C$L56||        ; [] 
        ; BRANCHCC OCCURS {||$C$L56||}   ; [] |1682| 
;* --------------------------------------------------------------------------*
	.dwpsn	file "../Tivaware_Dep/third_party/FreeRTOS/Source/tasks.c",line 1684,column 5,is_stmt,isa 1
        LDR       A1, [SP, #4]          ; [DPU_V7M3_PIPE] |1684| 
        LDR       A2, $C$CON32          ; [DPU_V7M3_PIPE] |1684| 
        LDR       A3, [A1, #44]         ; [DPU_V7M3_PIPE] |1684| 
        LSLS      A1, A3, #2            ; [DPU_V7M3_PIPE] |1684| 
        ADD       A1, A1, A3, LSL #4    ; [DPU_V7M3_PIPE] |1684| 
        LDR       A1, [A2, +A1]         ; [DPU_V7M3_PIPE] |1684| 
        CBNZ      A1, ||$C$L56||        ; [] 
        ; BRANCHCC OCCURS {||$C$L56||}   ; [] |1684| 
;* --------------------------------------------------------------------------*
        LDR       A1, [SP, #4]          ; [DPU_V7M3_PIPE] |1684| 
        LDR       A3, $C$CON33          ; [DPU_V7M3_PIPE] |1684| 
        LDR       A4, [A1, #44]         ; [DPU_V7M3_PIPE] |1684| 
        LDR       A2, [A3, #0]          ; [DPU_V7M3_PIPE] |1684| 
        MOVS      A1, #1                ; [DPU_V7M3_PIPE] |1684| 
        LSLS      A1, A1, A4            ; [DPU_V7M3_PIPE] |1684| 
        BICS      A2, A2, A1            ; [DPU_V7M3_PIPE] |1684| 
        STR       A2, [A3, #0]          ; [DPU_V7M3_PIPE] |1684| 
	.dwpsn	file "../Tivaware_Dep/third_party/FreeRTOS/Source/tasks.c",line 1685,column 4,is_stmt,isa 1
;* --------------------------------------------------------------------------*
||$C$L56||:    
	.dwpsn	file "../Tivaware_Dep/third_party/FreeRTOS/Source/tasks.c",line 1692,column 4,is_stmt,isa 1
        LDR       A1, [SP, #4]          ; [DPU_V7M3_PIPE] |1692| 
        LDR       A1, [A1, #40]         ; [DPU_V7M3_PIPE] |1692| 
        CBZ       A1, ||$C$L57||        ; [] 
        ; BRANCHCC OCCURS {||$C$L57||}   ; [] |1692| 
;* --------------------------------------------------------------------------*
	.dwpsn	file "../Tivaware_Dep/third_party/FreeRTOS/Source/tasks.c",line 1694,column 5,is_stmt,isa 1
        LDR       A1, [SP, #4]          ; [DPU_V7M3_PIPE] |1694| 
        ADDS      A1, A1, #24           ; [DPU_V7M3_PIPE] |1694| 
$C$DW$182	.dwtag  DW_TAG_TI_branch
	.dwattr $C$DW$182, DW_AT_low_pc(0x00)
	.dwattr $C$DW$182, DW_AT_name("uxListRemove")
	.dwattr $C$DW$182, DW_AT_TI_call

        BL        uxListRemove          ; [DPU_V7M3_PIPE] |1694| 
        ; CALL OCCURS {uxListRemove }    ; [] |1694| 
	.dwpsn	file "../Tivaware_Dep/third_party/FreeRTOS/Source/tasks.c",line 1695,column 4,is_stmt,isa 1
;* --------------------------------------------------------------------------*
||$C$L57||:    
	.dwpsn	file "../Tivaware_Dep/third_party/FreeRTOS/Source/tasks.c",line 1701,column 4,is_stmt,isa 1
        LDR       A2, [SP, #4]          ; [DPU_V7M3_PIPE] |1701| 
        LDR       A1, $C$CON34          ; [DPU_V7M3_PIPE] |1701| 
        ADDS      A2, A2, #4            ; [DPU_V7M3_PIPE] |1701| 
$C$DW$183	.dwtag  DW_TAG_TI_branch
	.dwattr $C$DW$183, DW_AT_low_pc(0x00)
	.dwattr $C$DW$183, DW_AT_name("vListInsertEnd")
	.dwattr $C$DW$183, DW_AT_TI_call

        BL        vListInsertEnd        ; [DPU_V7M3_PIPE] |1701| 
        ; CALL OCCURS {vListInsertEnd }  ; [] |1701| 
	.dwpsn	file "../Tivaware_Dep/third_party/FreeRTOS/Source/tasks.c",line 1705,column 5,is_stmt,isa 1
        LDR       A1, [SP, #4]          ; [DPU_V7M3_PIPE] |1705| 
        LDRB      A1, [A1, #92]         ; [DPU_V7M3_PIPE] |1705| 
        CMP       A1, #1                ; [DPU_V7M3_PIPE] |1705| 
        BNE       ||$C$L58||            ; [DPU_V7M3_PIPE] |1705| 
        ; BRANCHCC OCCURS {||$C$L58||}   ; [] |1705| 
;* --------------------------------------------------------------------------*
	.dwpsn	file "../Tivaware_Dep/third_party/FreeRTOS/Source/tasks.c",line 1709,column 6,is_stmt,isa 1
        LDR       A2, [SP, #4]          ; [DPU_V7M3_PIPE] |1709| 
        MOVS      A1, #0                ; [DPU_V7M3_PIPE] |1709| 
        STRB      A1, [A2, #92]         ; [DPU_V7M3_PIPE] |1709| 
;* --------------------------------------------------------------------------*
||$C$L58||:    
	.dwpsn	file "../Tivaware_Dep/third_party/FreeRTOS/Source/tasks.c",line 1714,column 3,is_stmt,isa 1
$C$DW$184	.dwtag  DW_TAG_TI_branch
	.dwattr $C$DW$184, DW_AT_low_pc(0x00)
	.dwattr $C$DW$184, DW_AT_name("vPortExitCritical")
	.dwattr $C$DW$184, DW_AT_TI_call

        BL        vPortExitCritical     ; [DPU_V7M3_PIPE] |1714| 
        ; CALL OCCURS {vPortExitCritical }  ; [] |1714| 
	.dwpsn	file "../Tivaware_Dep/third_party/FreeRTOS/Source/tasks.c",line 1716,column 3,is_stmt,isa 1
        LDR       A1, $C$CON35          ; [DPU_V7M3_PIPE] |1716| 
        LDR       A1, [A1, #0]          ; [DPU_V7M3_PIPE] |1716| 
        CBZ       A1, ||$C$L59||        ; [] 
        ; BRANCHCC OCCURS {||$C$L59||}   ; [] |1716| 
;* --------------------------------------------------------------------------*
	.dwpsn	file "../Tivaware_Dep/third_party/FreeRTOS/Source/tasks.c",line 1720,column 4,is_stmt,isa 1
$C$DW$185	.dwtag  DW_TAG_TI_branch
	.dwattr $C$DW$185, DW_AT_low_pc(0x00)
	.dwattr $C$DW$185, DW_AT_name("vPortEnterCritical")
	.dwattr $C$DW$185, DW_AT_TI_call

        BL        vPortEnterCritical    ; [DPU_V7M3_PIPE] |1720| 
        ; CALL OCCURS {vPortEnterCritical }  ; [] |1720| 
	.dwpsn	file "../Tivaware_Dep/third_party/FreeRTOS/Source/tasks.c",line 1722,column 5,is_stmt,isa 1
$C$DW$186	.dwtag  DW_TAG_TI_branch
	.dwattr $C$DW$186, DW_AT_low_pc(0x00)
	.dwattr $C$DW$186, DW_AT_name("prvResetNextTaskUnblockTime")
	.dwattr $C$DW$186, DW_AT_TI_call

        BL        prvResetNextTaskUnblockTime ; [DPU_V7M3_PIPE] |1722| 
        ; CALL OCCURS {prvResetNextTaskUnblockTime }  ; [] |1722| 
	.dwpsn	file "../Tivaware_Dep/third_party/FreeRTOS/Source/tasks.c",line 1724,column 4,is_stmt,isa 1
$C$DW$187	.dwtag  DW_TAG_TI_branch
	.dwattr $C$DW$187, DW_AT_low_pc(0x00)
	.dwattr $C$DW$187, DW_AT_name("vPortExitCritical")
	.dwattr $C$DW$187, DW_AT_TI_call

        BL        vPortExitCritical     ; [DPU_V7M3_PIPE] |1724| 
        ; CALL OCCURS {vPortExitCritical }  ; [] |1724| 
	.dwpsn	file "../Tivaware_Dep/third_party/FreeRTOS/Source/tasks.c",line 1725,column 3,is_stmt,isa 1
;* --------------------------------------------------------------------------*
||$C$L59||:    
	.dwpsn	file "../Tivaware_Dep/third_party/FreeRTOS/Source/tasks.c",line 1731,column 3,is_stmt,isa 1
        LDR       A1, $C$CON31          ; [DPU_V7M3_PIPE] |1731| 
        LDR       A2, [SP, #4]          ; [DPU_V7M3_PIPE] |1731| 
        LDR       A1, [A1, #0]          ; [DPU_V7M3_PIPE] |1731| 
        CMP       A1, A2                ; [DPU_V7M3_PIPE] |1731| 
        BNE       ||$C$L62||            ; [DPU_V7M3_PIPE] |1731| 
        ; BRANCHCC OCCURS {||$C$L62||}   ; [] |1731| 
;* --------------------------------------------------------------------------*
	.dwpsn	file "../Tivaware_Dep/third_party/FreeRTOS/Source/tasks.c",line 1733,column 4,is_stmt,isa 1
        LDR       A1, $C$CON35          ; [DPU_V7M3_PIPE] |1733| 
        LDR       A1, [A1, #0]          ; [DPU_V7M3_PIPE] |1733| 
        CBZ       A1, ||$C$L60||        ; [] 
        ; BRANCHCC OCCURS {||$C$L60||}   ; [] |1733| 
;* --------------------------------------------------------------------------*
	.dwpsn	file "../Tivaware_Dep/third_party/FreeRTOS/Source/tasks.c",line 1737,column 5,is_stmt,isa 1
        LDR       A2, $C$CON36          ; [DPU_V7M3_PIPE] |1737| 
        MOV       A1, #268435456        ; [DPU_V7M3_PIPE] |1737| 
        STR       A1, [A2, #0]          ; [DPU_V7M3_PIPE] |1737| 
	dsb
	isb
	.dwpsn	file "../Tivaware_Dep/third_party/FreeRTOS/Source/tasks.c",line 1738,column 4,is_stmt,isa 1
        B         ||$C$L62||            ; [DPU_V7M3_PIPE] |1738| 
        ; BRANCH OCCURS {||$C$L62||}     ; [] |1738| 
;* --------------------------------------------------------------------------*
||$C$L60||:    
	.dwpsn	file "../Tivaware_Dep/third_party/FreeRTOS/Source/tasks.c",line 1744,column 5,is_stmt,isa 1
        LDR       A1, $C$CON37          ; [DPU_V7M3_PIPE] |1744| 
        LDR       A2, $C$CON34          ; [DPU_V7M3_PIPE] |1744| 
        LDR       A1, [A1, #0]          ; [DPU_V7M3_PIPE] |1744| 
        LDR       A2, [A2, #0]          ; [DPU_V7M3_PIPE] |1744| 
        CMP       A1, A2                ; [DPU_V7M3_PIPE] |1744| 
        BNE       ||$C$L61||            ; [DPU_V7M3_PIPE] |1744| 
        ; BRANCHCC OCCURS {||$C$L61||}   ; [] |1744| 
;* --------------------------------------------------------------------------*
	.dwpsn	file "../Tivaware_Dep/third_party/FreeRTOS/Source/tasks.c",line 1750,column 6,is_stmt,isa 1
        LDR       A2, $C$CON31          ; [DPU_V7M3_PIPE] |1750| 
        MOVS      A1, #0                ; [DPU_V7M3_PIPE] |1750| 
        STR       A1, [A2, #0]          ; [DPU_V7M3_PIPE] |1750| 
	.dwpsn	file "../Tivaware_Dep/third_party/FreeRTOS/Source/tasks.c",line 1751,column 5,is_stmt,isa 1
        B         ||$C$L62||            ; [DPU_V7M3_PIPE] |1751| 
        ; BRANCH OCCURS {||$C$L62||}     ; [] |1751| 
;* --------------------------------------------------------------------------*
||$C$L61||:    
	.dwpsn	file "../Tivaware_Dep/third_party/FreeRTOS/Source/tasks.c",line 1754,column 6,is_stmt,isa 1
$C$DW$188	.dwtag  DW_TAG_TI_branch
	.dwattr $C$DW$188, DW_AT_low_pc(0x00)
	.dwattr $C$DW$188, DW_AT_name("vTaskSwitchContext")
	.dwattr $C$DW$188, DW_AT_TI_call

        BL        vTaskSwitchContext    ; [DPU_V7M3_PIPE] |1754| 
        ; CALL OCCURS {vTaskSwitchContext }  ; [] |1754| 
	.dwpsn	file "../Tivaware_Dep/third_party/FreeRTOS/Source/tasks.c",line 1757,column 3,is_stmt,isa 1
        B         ||$C$L62||            ; [DPU_V7M3_PIPE] |1757| 
        ; BRANCH OCCURS {||$C$L62||}     ; [] |1757| 
;* --------------------------------------------------------------------------*
;* --------------------------------------------------------------------------*
||$C$L62||:    
$C$DW$189	.dwtag  DW_TAG_TI_branch
	.dwattr $C$DW$189, DW_AT_low_pc(0x00)
	.dwattr $C$DW$189, DW_AT_TI_return

        POP       {A2, A3, A4, PC}      ; [DPU_V7M3_PIPE] 
	.dwcfi	cfa_offset, 0
	.dwcfi	restore_reg, 3
	.dwcfi	restore_reg, 2
	.dwcfi	restore_reg, 1
        ; BRANCH OCCURS                  ; [] 
	.dwattr $C$DW$176, DW_AT_TI_end_file("../Tivaware_Dep/third_party/FreeRTOS/Source/tasks.c")
	.dwattr $C$DW$176, DW_AT_TI_end_line(0x6e2)
	.dwattr $C$DW$176, DW_AT_TI_end_column(0x02)
	.dwendentry
	.dwendtag $C$DW$176

	.sect	".text:prvTaskIsTaskSuspended"
	.clink
	.thumbfunc prvTaskIsTaskSuspended
	.thumb

$C$DW$190	.dwtag  DW_TAG_subprogram
	.dwattr $C$DW$190, DW_AT_name("prvTaskIsTaskSuspended")
	.dwattr $C$DW$190, DW_AT_low_pc(prvTaskIsTaskSuspended)
	.dwattr $C$DW$190, DW_AT_high_pc(0x00)
	.dwattr $C$DW$190, DW_AT_TI_symbol_name("prvTaskIsTaskSuspended")
	.dwattr $C$DW$190, DW_AT_type(*$C$DW$T$93)
	.dwattr $C$DW$190, DW_AT_TI_begin_file("../Tivaware_Dep/third_party/FreeRTOS/Source/tasks.c")
	.dwattr $C$DW$190, DW_AT_TI_begin_line(0x6e9)
	.dwattr $C$DW$190, DW_AT_TI_begin_column(0x14)
	.dwattr $C$DW$190, DW_AT_decl_file("../Tivaware_Dep/third_party/FreeRTOS/Source/tasks.c")
	.dwattr $C$DW$190, DW_AT_decl_line(0x6e9)
	.dwattr $C$DW$190, DW_AT_decl_column(0x14)
	.dwattr $C$DW$190, DW_AT_TI_max_frame_size(0x10)
	.dwpsn	file "../Tivaware_Dep/third_party/FreeRTOS/Source/tasks.c",line 1770,column 2,is_stmt,address prvTaskIsTaskSuspended,isa 1

	.dwfde $C$DW$CIE, prvTaskIsTaskSuspended
$C$DW$191	.dwtag  DW_TAG_formal_parameter
	.dwattr $C$DW$191, DW_AT_name("xTask")
	.dwattr $C$DW$191, DW_AT_TI_symbol_name("xTask")
	.dwattr $C$DW$191, DW_AT_type(*$C$DW$T$161)
	.dwattr $C$DW$191, DW_AT_location[DW_OP_reg0]


;*****************************************************************************
;* FUNCTION NAME: prvTaskIsTaskSuspended                                     *
;*                                                                           *
;*   Regs Modified     : A1,A2,SP,SR                                         *
;*   Regs Used         : A1,A2,SP,LR,SR                                      *
;*   Local Frame Size  : 0 Args + 12 Auto + 0 Save = 12 byte                 *
;*****************************************************************************
prvTaskIsTaskSuspended:
;* --------------------------------------------------------------------------*
	.dwcfi	cfa_offset, 0
        SUB       SP, SP, #16           ; [DPU_V7M3_PIPE] 
	.dwcfi	cfa_offset, 16
$C$DW$192	.dwtag  DW_TAG_variable
	.dwattr $C$DW$192, DW_AT_name("xTask")
	.dwattr $C$DW$192, DW_AT_TI_symbol_name("xTask")
	.dwattr $C$DW$192, DW_AT_type(*$C$DW$T$161)
	.dwattr $C$DW$192, DW_AT_location[DW_OP_breg13 0]

$C$DW$193	.dwtag  DW_TAG_variable
	.dwattr $C$DW$193, DW_AT_name("xReturn")
	.dwattr $C$DW$193, DW_AT_TI_symbol_name("xReturn")
	.dwattr $C$DW$193, DW_AT_type(*$C$DW$T$93)
	.dwattr $C$DW$193, DW_AT_location[DW_OP_breg13 4]

$C$DW$194	.dwtag  DW_TAG_variable
	.dwattr $C$DW$194, DW_AT_name("pxTCB")
	.dwattr $C$DW$194, DW_AT_TI_symbol_name("pxTCB")
	.dwattr $C$DW$194, DW_AT_type(*$C$DW$T$340)
	.dwattr $C$DW$194, DW_AT_location[DW_OP_breg13 8]

        STR       A1, [SP, #0]          ; [DPU_V7M3_PIPE] |1770| 
	.dwpsn	file "../Tivaware_Dep/third_party/FreeRTOS/Source/tasks.c",line 1771,column 21,is_stmt,isa 1
        MOVS      A1, #0                ; [DPU_V7M3_PIPE] |1771| 
        STR       A1, [SP, #4]          ; [DPU_V7M3_PIPE] |1771| 
	.dwpsn	file "../Tivaware_Dep/third_party/FreeRTOS/Source/tasks.c",line 1772,column 28,is_stmt,isa 1
        LDR       A1, [SP, #0]          ; [DPU_V7M3_PIPE] |1772| 
        STR       A1, [SP, #8]          ; [DPU_V7M3_PIPE] |1772| 
	.dwpsn	file "../Tivaware_Dep/third_party/FreeRTOS/Source/tasks.c",line 1781,column 3,is_stmt,isa 1
        LDR       A1, [SP, #8]          ; [DPU_V7M3_PIPE] |1781| 
        LDR       A2, $C$CON38          ; [DPU_V7M3_PIPE] |1781| 
        LDR       A1, [A1, #20]         ; [DPU_V7M3_PIPE] |1781| 
        CMP       A2, A1                ; [DPU_V7M3_PIPE] |1781| 
        BNE       ||$C$L63||            ; [DPU_V7M3_PIPE] |1781| 
        ; BRANCHCC OCCURS {||$C$L63||}   ; [] |1781| 
;* --------------------------------------------------------------------------*
        MOVS      A1, #1                ; [DPU_V7M3_PIPE] |1781| 
        B         ||$C$L64||            ; [DPU_V7M3_PIPE] |1781| 
        ; BRANCH OCCURS {||$C$L64||}     ; [] |1781| 
;* --------------------------------------------------------------------------*
||$C$L63||:    
        MOVS      A1, #0                ; [DPU_V7M3_PIPE] |1781| 
;* --------------------------------------------------------------------------*
||$C$L64||:    
        CBZ       A1, ||$C$L69||        ; [] 
        ; BRANCHCC OCCURS {||$C$L69||}   ; [] |1781| 
;* --------------------------------------------------------------------------*
	.dwpsn	file "../Tivaware_Dep/third_party/FreeRTOS/Source/tasks.c",line 1784,column 4,is_stmt,isa 1
        LDR       A1, [SP, #8]          ; [DPU_V7M3_PIPE] |1784| 
        LDR       A2, $C$CON39          ; [DPU_V7M3_PIPE] |1784| 
        LDR       A1, [A1, #40]         ; [DPU_V7M3_PIPE] |1784| 
        CMP       A2, A1                ; [DPU_V7M3_PIPE] |1784| 
        BNE       ||$C$L65||            ; [DPU_V7M3_PIPE] |1784| 
        ; BRANCHCC OCCURS {||$C$L65||}   ; [] |1784| 
;* --------------------------------------------------------------------------*
        MOVS      A1, #1                ; [DPU_V7M3_PIPE] |1784| 
        B         ||$C$L66||            ; [DPU_V7M3_PIPE] |1784| 
        ; BRANCH OCCURS {||$C$L66||}     ; [] |1784| 
;* --------------------------------------------------------------------------*
||$C$L65||:    
        MOVS      A1, #0                ; [DPU_V7M3_PIPE] |1784| 
;* --------------------------------------------------------------------------*
||$C$L66||:    
        CBNZ      A1, ||$C$L69||        ; [] 
        ; BRANCHCC OCCURS {||$C$L69||}   ; [] |1784| 
;* --------------------------------------------------------------------------*
	.dwpsn	file "../Tivaware_Dep/third_party/FreeRTOS/Source/tasks.c",line 1788,column 5,is_stmt,isa 1
        LDR       A1, [SP, #8]          ; [DPU_V7M3_PIPE] |1788| 
        LDR       A1, [A1, #40]         ; [DPU_V7M3_PIPE] |1788| 
        CBNZ      A1, ||$C$L67||        ; [] 
        ; BRANCHCC OCCURS {||$C$L67||}   ; [] |1788| 
;* --------------------------------------------------------------------------*
        MOVS      A1, #1                ; [DPU_V7M3_PIPE] |1788| 
        B         ||$C$L68||            ; [DPU_V7M3_PIPE] |1788| 
        ; BRANCH OCCURS {||$C$L68||}     ; [] |1788| 
;* --------------------------------------------------------------------------*
||$C$L67||:    
        MOVS      A1, #0                ; [DPU_V7M3_PIPE] |1788| 
;* --------------------------------------------------------------------------*
||$C$L68||:    
        CBZ       A1, ||$C$L69||        ; [] 
        ; BRANCHCC OCCURS {||$C$L69||}   ; [] |1788| 
;* --------------------------------------------------------------------------*
	.dwpsn	file "../Tivaware_Dep/third_party/FreeRTOS/Source/tasks.c",line 1790,column 6,is_stmt,isa 1
        MOVS      A1, #1                ; [DPU_V7M3_PIPE] |1790| 
        STR       A1, [SP, #4]          ; [DPU_V7M3_PIPE] |1790| 
	.dwpsn	file "../Tivaware_Dep/third_party/FreeRTOS/Source/tasks.c",line 1791,column 5,is_stmt,isa 1
        B         ||$C$L69||            ; [DPU_V7M3_PIPE] |1791| 
        ; BRANCH OCCURS {||$C$L69||}     ; [] |1791| 
;* --------------------------------------------------------------------------*
;* --------------------------------------------------------------------------*
||$C$L69||:    
	.dwpsn	file "../Tivaware_Dep/third_party/FreeRTOS/Source/tasks.c",line 1807,column 3,is_stmt,isa 1
        LDR       A1, [SP, #4]          ; [DPU_V7M3_PIPE] |1807| 
	.dwpsn	file "../Tivaware_Dep/third_party/FreeRTOS/Source/tasks.c",line 1808,column 2,is_stmt,isa 1
        ADD       SP, SP, #16           ; [DPU_V7M3_PIPE] 
	.dwcfi	cfa_offset, 0
$C$DW$195	.dwtag  DW_TAG_TI_branch
	.dwattr $C$DW$195, DW_AT_low_pc(0x00)
	.dwattr $C$DW$195, DW_AT_TI_return

        BX        LR                    ; [DPU_V7M3_PIPE] 
        ; BRANCH OCCURS                  ; [] 
	.dwattr $C$DW$190, DW_AT_TI_end_file("../Tivaware_Dep/third_party/FreeRTOS/Source/tasks.c")
	.dwattr $C$DW$190, DW_AT_TI_end_line(0x710)
	.dwattr $C$DW$190, DW_AT_TI_end_column(0x02)
	.dwendentry
	.dwendtag $C$DW$190

	.sect	".text:vTaskResume"
	.clink
	.thumbfunc vTaskResume
	.thumb
	.global	vTaskResume

$C$DW$196	.dwtag  DW_TAG_subprogram
	.dwattr $C$DW$196, DW_AT_name("vTaskResume")
	.dwattr $C$DW$196, DW_AT_low_pc(vTaskResume)
	.dwattr $C$DW$196, DW_AT_high_pc(0x00)
	.dwattr $C$DW$196, DW_AT_TI_symbol_name("vTaskResume")
	.dwattr $C$DW$196, DW_AT_external
	.dwattr $C$DW$196, DW_AT_TI_begin_file("../Tivaware_Dep/third_party/FreeRTOS/Source/tasks.c")
	.dwattr $C$DW$196, DW_AT_TI_begin_line(0x717)
	.dwattr $C$DW$196, DW_AT_TI_begin_column(0x07)
	.dwattr $C$DW$196, DW_AT_decl_file("../Tivaware_Dep/third_party/FreeRTOS/Source/tasks.c")
	.dwattr $C$DW$196, DW_AT_decl_line(0x717)
	.dwattr $C$DW$196, DW_AT_decl_column(0x07)
	.dwattr $C$DW$196, DW_AT_TI_max_frame_size(0x10)
	.dwpsn	file "../Tivaware_Dep/third_party/FreeRTOS/Source/tasks.c",line 1816,column 2,is_stmt,address vTaskResume,isa 1

	.dwfde $C$DW$CIE, vTaskResume
$C$DW$197	.dwtag  DW_TAG_formal_parameter
	.dwattr $C$DW$197, DW_AT_name("xTaskToResume")
	.dwattr $C$DW$197, DW_AT_TI_symbol_name("xTaskToResume")
	.dwattr $C$DW$197, DW_AT_type(*$C$DW$T$89)
	.dwattr $C$DW$197, DW_AT_location[DW_OP_reg0]


;*****************************************************************************
;* FUNCTION NAME: vTaskResume                                                *
;*                                                                           *
;*   Regs Modified     : A1,A2,A3,A4,V1,V9,SP,LR,SR,D0,D0_hi,D1,D1_hi,D2,    *
;*                           D2_hi,D3,D3_hi,D4,D4_hi,D5,D5_hi,D6,D6_hi,D7,   *
;*                           D7_hi,FPEXC,FPSCR                               *
;*   Regs Used         : A1,A2,A3,A4,V1,V9,SP,LR,SR,D0,D0_hi,D1,D1_hi,D2,    *
;*                           D2_hi,D3,D3_hi,D4,D4_hi,D5,D5_hi,D6,D6_hi,D7,   *
;*                           D7_hi,FPEXC,FPSCR                               *
;*   Local Frame Size  : 0 Args + 8 Auto + 8 Save = 16 byte                  *
;*****************************************************************************
vTaskResume:
;* --------------------------------------------------------------------------*
	.dwcfi	cfa_offset, 0
        PUSH      {A3, A4, V1, LR}      ; [DPU_V7M3_PIPE] 
	.dwcfi	cfa_offset, 16
	.dwcfi	save_reg_to_mem, 14, -4
	.dwcfi	save_reg_to_mem, 4, -8
	.dwcfi	save_reg_to_mem, 3, -12
	.dwcfi	save_reg_to_mem, 2, -16
$C$DW$198	.dwtag  DW_TAG_variable
	.dwattr $C$DW$198, DW_AT_name("xTaskToResume")
	.dwattr $C$DW$198, DW_AT_TI_symbol_name("xTaskToResume")
	.dwattr $C$DW$198, DW_AT_type(*$C$DW$T$89)
	.dwattr $C$DW$198, DW_AT_location[DW_OP_breg13 0]

$C$DW$199	.dwtag  DW_TAG_variable
	.dwattr $C$DW$199, DW_AT_name("pxTCB")
	.dwattr $C$DW$199, DW_AT_TI_symbol_name("pxTCB")
	.dwattr $C$DW$199, DW_AT_type(*$C$DW$T$342)
	.dwattr $C$DW$199, DW_AT_location[DW_OP_breg13 4]

        STR       A1, [SP, #0]          ; [DPU_V7M3_PIPE] |1816| 
	.dwpsn	file "../Tivaware_Dep/third_party/FreeRTOS/Source/tasks.c",line 1817,column 22,is_stmt,isa 1
        LDR       A1, [SP, #0]          ; [DPU_V7M3_PIPE] |1817| 
        STR       A1, [SP, #4]          ; [DPU_V7M3_PIPE] |1817| 
	.dwpsn	file "../Tivaware_Dep/third_party/FreeRTOS/Source/tasks.c",line 1824,column 3,is_stmt,isa 1
        LDR       A1, $C$CON40          ; [DPU_V7M3_PIPE] |1824| 
        LDR       A2, [SP, #4]          ; [DPU_V7M3_PIPE] |1824| 
        LDR       A1, [A1, #0]          ; [DPU_V7M3_PIPE] |1824| 
        CMP       A1, A2                ; [DPU_V7M3_PIPE] |1824| 
        BEQ       ||$C$L71||            ; [DPU_V7M3_PIPE] |1824| 
        ; BRANCHCC OCCURS {||$C$L71||}   ; [] |1824| 
;* --------------------------------------------------------------------------*
        LDR       A1, [SP, #4]          ; [DPU_V7M3_PIPE] |1824| 
        CMP       A1, #0                ; [DPU_V7M3_PIPE] |1824| 
        BEQ       ||$C$L71||            ; [DPU_V7M3_PIPE] |1824| 
        ; BRANCHCC OCCURS {||$C$L71||}   ; [] |1824| 
;* --------------------------------------------------------------------------*
	.dwpsn	file "../Tivaware_Dep/third_party/FreeRTOS/Source/tasks.c",line 1826,column 4,is_stmt,isa 1
$C$DW$200	.dwtag  DW_TAG_TI_branch
	.dwattr $C$DW$200, DW_AT_low_pc(0x00)
	.dwattr $C$DW$200, DW_AT_name("vPortEnterCritical")
	.dwattr $C$DW$200, DW_AT_TI_call

        BL        vPortEnterCritical    ; [DPU_V7M3_PIPE] |1826| 
        ; CALL OCCURS {vPortEnterCritical }  ; [] |1826| 
	.dwpsn	file "../Tivaware_Dep/third_party/FreeRTOS/Source/tasks.c",line 1828,column 5,is_stmt,isa 1
        LDR       A1, [SP, #4]          ; [DPU_V7M3_PIPE] |1828| 
$C$DW$201	.dwtag  DW_TAG_TI_branch
	.dwattr $C$DW$201, DW_AT_low_pc(0x00)
	.dwattr $C$DW$201, DW_AT_name("prvTaskIsTaskSuspended")
	.dwattr $C$DW$201, DW_AT_TI_call

        BL        prvTaskIsTaskSuspended ; [DPU_V7M3_PIPE] |1828| 
        ; CALL OCCURS {prvTaskIsTaskSuspended }  ; [] |1828| 
        CBZ       A1, ||$C$L70||        ; [] 
        ; BRANCHCC OCCURS {||$C$L70||}   ; [] |1828| 
;* --------------------------------------------------------------------------*
	.dwpsn	file "../Tivaware_Dep/third_party/FreeRTOS/Source/tasks.c",line 1834,column 6,is_stmt,isa 1
        LDR       A1, [SP, #4]          ; [DPU_V7M3_PIPE] |1834| 
        ADDS      A1, A1, #4            ; [DPU_V7M3_PIPE] |1834| 
$C$DW$202	.dwtag  DW_TAG_TI_branch
	.dwattr $C$DW$202, DW_AT_low_pc(0x00)
	.dwattr $C$DW$202, DW_AT_name("uxListRemove")
	.dwattr $C$DW$202, DW_AT_TI_call

        BL        uxListRemove          ; [DPU_V7M3_PIPE] |1834| 
        ; CALL OCCURS {uxListRemove }    ; [] |1834| 
	.dwpsn	file "../Tivaware_Dep/third_party/FreeRTOS/Source/tasks.c",line 1835,column 6,is_stmt,isa 1
        LDR       A1, [SP, #4]          ; [DPU_V7M3_PIPE] |1835| 
        LDR       A3, $C$CON41          ; [DPU_V7M3_PIPE] |1835| 
        LDR       V1, [A1, #44]         ; [DPU_V7M3_PIPE] |1835| 
        LDR       A2, [SP, #4]          ; [DPU_V7M3_PIPE] |1835| 
        LDR       A4, [A3, #0]          ; [DPU_V7M3_PIPE] |1835| 
        MOVS      A1, #1                ; [DPU_V7M3_PIPE] |1835| 
        LSLS      A1, A1, V1            ; [DPU_V7M3_PIPE] |1835| 
        ORRS      A1, A1, A4            ; [DPU_V7M3_PIPE] |1835| 
        STR       A1, [A3, #0]          ; [DPU_V7M3_PIPE] |1835| 
        LDR       A4, $C$CON42          ; [DPU_V7M3_PIPE] |1835| 
        LDR       A3, [A2, #44]         ; [DPU_V7M3_PIPE] |1835| 
        LDR       A2, [SP, #4]          ; [DPU_V7M3_PIPE] |1835| 
        LSLS      A1, A3, #2            ; [DPU_V7M3_PIPE] |1835| 
        ADD       A1, A1, A3, LSL #4    ; [DPU_V7M3_PIPE] |1835| 
        ADDS      A2, A2, #4            ; [DPU_V7M3_PIPE] |1835| 
        ADDS      A1, A1, A4            ; [DPU_V7M3_PIPE] |1835| 
$C$DW$203	.dwtag  DW_TAG_TI_branch
	.dwattr $C$DW$203, DW_AT_low_pc(0x00)
	.dwattr $C$DW$203, DW_AT_name("vListInsertEnd")
	.dwattr $C$DW$203, DW_AT_TI_call

        BL        vListInsertEnd        ; [DPU_V7M3_PIPE] |1835| 
        ; CALL OCCURS {vListInsertEnd }  ; [] |1835| 
	.dwpsn	file "../Tivaware_Dep/third_party/FreeRTOS/Source/tasks.c",line 1838,column 6,is_stmt,isa 1
        LDR       A1, $C$CON40          ; [DPU_V7M3_PIPE] |1838| 
        LDR       A2, [SP, #4]          ; [DPU_V7M3_PIPE] |1838| 
        LDR       A1, [A1, #0]          ; [DPU_V7M3_PIPE] |1838| 
        LDR       A2, [A2, #44]         ; [DPU_V7M3_PIPE] |1838| 
        LDR       A1, [A1, #44]         ; [DPU_V7M3_PIPE] |1838| 
        CMP       A1, A2                ; [DPU_V7M3_PIPE] |1838| 
        BHI       ||$C$L70||            ; [DPU_V7M3_PIPE] |1838| 
        ; BRANCHCC OCCURS {||$C$L70||}   ; [] |1838| 
;* --------------------------------------------------------------------------*
	.dwpsn	file "../Tivaware_Dep/third_party/FreeRTOS/Source/tasks.c",line 1843,column 7,is_stmt,isa 1
        LDR       A2, $C$CON43          ; [DPU_V7M3_PIPE] |1843| 
        MOV       A1, #268435456        ; [DPU_V7M3_PIPE] |1843| 
        STR       A1, [A2, #0]          ; [DPU_V7M3_PIPE] |1843| 
	dsb
	isb
	.dwpsn	file "../Tivaware_Dep/third_party/FreeRTOS/Source/tasks.c",line 1844,column 6,is_stmt,isa 1
        B         ||$C$L70||            ; [DPU_V7M3_PIPE] |1844| 
        ; BRANCH OCCURS {||$C$L70||}     ; [] |1844| 
;* --------------------------------------------------------------------------*
;* --------------------------------------------------------------------------*
||$C$L70||:    
	.dwpsn	file "../Tivaware_Dep/third_party/FreeRTOS/Source/tasks.c",line 1855,column 4,is_stmt,isa 1
$C$DW$204	.dwtag  DW_TAG_TI_branch
	.dwattr $C$DW$204, DW_AT_low_pc(0x00)
	.dwattr $C$DW$204, DW_AT_name("vPortExitCritical")
	.dwattr $C$DW$204, DW_AT_TI_call

        BL        vPortExitCritical     ; [DPU_V7M3_PIPE] |1855| 
        ; CALL OCCURS {vPortExitCritical }  ; [] |1855| 
	.dwpsn	file "../Tivaware_Dep/third_party/FreeRTOS/Source/tasks.c",line 1856,column 3,is_stmt,isa 1
        B         ||$C$L71||            ; [DPU_V7M3_PIPE] |1856| 
        ; BRANCH OCCURS {||$C$L71||}     ; [] |1856| 
;* --------------------------------------------------------------------------*
;* --------------------------------------------------------------------------*
||$C$L71||:    
$C$DW$205	.dwtag  DW_TAG_TI_branch
	.dwattr $C$DW$205, DW_AT_low_pc(0x00)
	.dwattr $C$DW$205, DW_AT_TI_return

        POP       {A3, A4, V1, PC}      ; [DPU_V7M3_PIPE] 
	.dwcfi	cfa_offset, 0
	.dwcfi	restore_reg, 4
	.dwcfi	restore_reg, 3
	.dwcfi	restore_reg, 2
        ; BRANCH OCCURS                  ; [] 
	.dwattr $C$DW$196, DW_AT_TI_end_file("../Tivaware_Dep/third_party/FreeRTOS/Source/tasks.c")
	.dwattr $C$DW$196, DW_AT_TI_end_line(0x745)
	.dwattr $C$DW$196, DW_AT_TI_end_column(0x02)
	.dwendentry
	.dwendtag $C$DW$196

	.sect	".text:xTaskResumeFromISR"
	.clink
	.thumbfunc xTaskResumeFromISR
	.thumb
	.global	xTaskResumeFromISR

$C$DW$206	.dwtag  DW_TAG_subprogram
	.dwattr $C$DW$206, DW_AT_name("xTaskResumeFromISR")
	.dwattr $C$DW$206, DW_AT_low_pc(xTaskResumeFromISR)
	.dwattr $C$DW$206, DW_AT_high_pc(0x00)
	.dwattr $C$DW$206, DW_AT_TI_symbol_name("xTaskResumeFromISR")
	.dwattr $C$DW$206, DW_AT_external
	.dwattr $C$DW$206, DW_AT_type(*$C$DW$T$93)
	.dwattr $C$DW$206, DW_AT_TI_begin_file("../Tivaware_Dep/third_party/FreeRTOS/Source/tasks.c")
	.dwattr $C$DW$206, DW_AT_TI_begin_line(0x74d)
	.dwattr $C$DW$206, DW_AT_TI_begin_column(0x0d)
	.dwattr $C$DW$206, DW_AT_decl_file("../Tivaware_Dep/third_party/FreeRTOS/Source/tasks.c")
	.dwattr $C$DW$206, DW_AT_decl_line(0x74d)
	.dwattr $C$DW$206, DW_AT_decl_column(0x0d)
	.dwattr $C$DW$206, DW_AT_TI_max_frame_size(0x18)
	.dwpsn	file "../Tivaware_Dep/third_party/FreeRTOS/Source/tasks.c",line 1870,column 2,is_stmt,address xTaskResumeFromISR,isa 1

	.dwfde $C$DW$CIE, xTaskResumeFromISR
$C$DW$207	.dwtag  DW_TAG_formal_parameter
	.dwattr $C$DW$207, DW_AT_name("xTaskToResume")
	.dwattr $C$DW$207, DW_AT_TI_symbol_name("xTaskToResume")
	.dwattr $C$DW$207, DW_AT_type(*$C$DW$T$89)
	.dwattr $C$DW$207, DW_AT_location[DW_OP_reg0]


;*****************************************************************************
;* FUNCTION NAME: xTaskResumeFromISR                                         *
;*                                                                           *
;*   Regs Modified     : A1,A2,A3,A4,V1,V9,SP,LR,SR,D0,D0_hi,D1,D1_hi,D2,    *
;*                           D2_hi,D3,D3_hi,D4,D4_hi,D5,D5_hi,D6,D6_hi,D7,   *
;*                           D7_hi,FPEXC,FPSCR                               *
;*   Regs Used         : A1,A2,A3,A4,V1,V9,SP,LR,SR,D0,D0_hi,D1,D1_hi,D2,    *
;*                           D2_hi,D3,D3_hi,D4,D4_hi,D5,D5_hi,D6,D6_hi,D7,   *
;*                           D7_hi,FPEXC,FPSCR                               *
;*   Local Frame Size  : 0 Args + 16 Auto + 8 Save = 24 byte                 *
;*****************************************************************************
xTaskResumeFromISR:
;* --------------------------------------------------------------------------*
	.dwcfi	cfa_offset, 0
        PUSH      {A1, A2, A3, A4, V1, LR} ; [DPU_V7M3_PIPE] 
	.dwcfi	cfa_offset, 24
	.dwcfi	save_reg_to_mem, 14, -4
	.dwcfi	save_reg_to_mem, 4, -8
	.dwcfi	save_reg_to_mem, 3, -12
	.dwcfi	save_reg_to_mem, 2, -16
	.dwcfi	save_reg_to_mem, 1, -20
	.dwcfi	save_reg_to_mem, 0, -24
$C$DW$208	.dwtag  DW_TAG_variable
	.dwattr $C$DW$208, DW_AT_name("xTaskToResume")
	.dwattr $C$DW$208, DW_AT_TI_symbol_name("xTaskToResume")
	.dwattr $C$DW$208, DW_AT_type(*$C$DW$T$89)
	.dwattr $C$DW$208, DW_AT_location[DW_OP_breg13 0]

$C$DW$209	.dwtag  DW_TAG_variable
	.dwattr $C$DW$209, DW_AT_name("xYieldRequired")
	.dwattr $C$DW$209, DW_AT_TI_symbol_name("xYieldRequired")
	.dwattr $C$DW$209, DW_AT_type(*$C$DW$T$93)
	.dwattr $C$DW$209, DW_AT_location[DW_OP_breg13 4]

$C$DW$210	.dwtag  DW_TAG_variable
	.dwattr $C$DW$210, DW_AT_name("pxTCB")
	.dwattr $C$DW$210, DW_AT_TI_symbol_name("pxTCB")
	.dwattr $C$DW$210, DW_AT_type(*$C$DW$T$342)
	.dwattr $C$DW$210, DW_AT_location[DW_OP_breg13 8]

$C$DW$211	.dwtag  DW_TAG_variable
	.dwattr $C$DW$211, DW_AT_name("uxSavedInterruptStatus")
	.dwattr $C$DW$211, DW_AT_TI_symbol_name("uxSavedInterruptStatus")
	.dwattr $C$DW$211, DW_AT_type(*$C$DW$T$26)
	.dwattr $C$DW$211, DW_AT_location[DW_OP_breg13 12]

        STR       A1, [SP, #0]          ; [DPU_V7M3_PIPE] |1870| 
	.dwpsn	file "../Tivaware_Dep/third_party/FreeRTOS/Source/tasks.c",line 1871,column 28,is_stmt,isa 1
        MOVS      A1, #0                ; [DPU_V7M3_PIPE] |1871| 
        STR       A1, [SP, #4]          ; [DPU_V7M3_PIPE] |1871| 
	.dwpsn	file "../Tivaware_Dep/third_party/FreeRTOS/Source/tasks.c",line 1872,column 22,is_stmt,isa 1
        LDR       A1, [SP, #0]          ; [DPU_V7M3_PIPE] |1872| 
        STR       A1, [SP, #8]          ; [DPU_V7M3_PIPE] |1872| 
	.dwpsn	file "../Tivaware_Dep/third_party/FreeRTOS/Source/tasks.c",line 1895,column 3,is_stmt,isa 1
        MRS       A2, BASEPRI           ; [DPU_V7M3_PIPE] |1895| 
        MOVS      A1, #160              ; [DPU_V7M3_PIPE] |1895| 
        MSR       BASEPRI, A1           ; [DPU_V7M3_PIPE] |1895| 
        STR       A2, [SP, #12]         ; [DPU_V7M3_PIPE] |1895| 
	.dwpsn	file "../Tivaware_Dep/third_party/FreeRTOS/Source/tasks.c",line 1895,column 28,is_stmt,isa 1
	dsb
	isb
	.dwpsn	file "../Tivaware_Dep/third_party/FreeRTOS/Source/tasks.c",line 1897,column 4,is_stmt,isa 1
        LDR       A1, [SP, #8]          ; [DPU_V7M3_PIPE] |1897| 
$C$DW$212	.dwtag  DW_TAG_TI_branch
	.dwattr $C$DW$212, DW_AT_low_pc(0x00)
	.dwattr $C$DW$212, DW_AT_name("prvTaskIsTaskSuspended")
	.dwattr $C$DW$212, DW_AT_TI_call

        BL        prvTaskIsTaskSuspended ; [DPU_V7M3_PIPE] |1897| 
        ; CALL OCCURS {prvTaskIsTaskSuspended }  ; [] |1897| 
        CBZ       A1, ||$C$L74||        ; [] 
        ; BRANCHCC OCCURS {||$C$L74||}   ; [] |1897| 
;* --------------------------------------------------------------------------*
	.dwpsn	file "../Tivaware_Dep/third_party/FreeRTOS/Source/tasks.c",line 1902,column 5,is_stmt,isa 1
        LDR       A1, $C$CON44          ; [DPU_V7M3_PIPE] |1902| 
        LDR       A1, [A1, #0]          ; [DPU_V7M3_PIPE] |1902| 
        CBNZ      A1, ||$C$L73||        ; [] 
        ; BRANCHCC OCCURS {||$C$L73||}   ; [] |1902| 
;* --------------------------------------------------------------------------*
	.dwpsn	file "../Tivaware_Dep/third_party/FreeRTOS/Source/tasks.c",line 1906,column 6,is_stmt,isa 1
        LDR       A1, $C$CON45          ; [DPU_V7M3_PIPE] |1906| 
        LDR       A2, [SP, #8]          ; [DPU_V7M3_PIPE] |1906| 
        LDR       A1, [A1, #0]          ; [DPU_V7M3_PIPE] |1906| 
        LDR       A2, [A2, #44]         ; [DPU_V7M3_PIPE] |1906| 
        LDR       A1, [A1, #44]         ; [DPU_V7M3_PIPE] |1906| 
        CMP       A1, A2                ; [DPU_V7M3_PIPE] |1906| 
        BHI       ||$C$L72||            ; [DPU_V7M3_PIPE] |1906| 
        ; BRANCHCC OCCURS {||$C$L72||}   ; [] |1906| 
;* --------------------------------------------------------------------------*
	.dwpsn	file "../Tivaware_Dep/third_party/FreeRTOS/Source/tasks.c",line 1908,column 7,is_stmt,isa 1
        MOVS      A1, #1                ; [DPU_V7M3_PIPE] |1908| 
        STR       A1, [SP, #4]          ; [DPU_V7M3_PIPE] |1908| 
	.dwpsn	file "../Tivaware_Dep/third_party/FreeRTOS/Source/tasks.c",line 1909,column 6,is_stmt,isa 1
;* --------------------------------------------------------------------------*
||$C$L72||:    
	.dwpsn	file "../Tivaware_Dep/third_party/FreeRTOS/Source/tasks.c",line 1915,column 6,is_stmt,isa 1
        LDR       A1, [SP, #8]          ; [DPU_V7M3_PIPE] |1915| 
        ADDS      A1, A1, #4            ; [DPU_V7M3_PIPE] |1915| 
$C$DW$213	.dwtag  DW_TAG_TI_branch
	.dwattr $C$DW$213, DW_AT_low_pc(0x00)
	.dwattr $C$DW$213, DW_AT_name("uxListRemove")
	.dwattr $C$DW$213, DW_AT_TI_call

        BL        uxListRemove          ; [DPU_V7M3_PIPE] |1915| 
        ; CALL OCCURS {uxListRemove }    ; [] |1915| 
	.dwpsn	file "../Tivaware_Dep/third_party/FreeRTOS/Source/tasks.c",line 1916,column 6,is_stmt,isa 1
        LDR       A1, [SP, #8]          ; [DPU_V7M3_PIPE] |1916| 
        LDR       A3, $C$CON46          ; [DPU_V7M3_PIPE] |1916| 
        LDR       V1, [A1, #44]         ; [DPU_V7M3_PIPE] |1916| 
        LDR       A2, [SP, #8]          ; [DPU_V7M3_PIPE] |1916| 
        LDR       A4, [A3, #0]          ; [DPU_V7M3_PIPE] |1916| 
        MOVS      A1, #1                ; [DPU_V7M3_PIPE] |1916| 
        LSLS      A1, A1, V1            ; [DPU_V7M3_PIPE] |1916| 
        ORRS      A1, A1, A4            ; [DPU_V7M3_PIPE] |1916| 
        STR       A1, [A3, #0]          ; [DPU_V7M3_PIPE] |1916| 
        LDR       A4, $C$CON47          ; [DPU_V7M3_PIPE] |1916| 
        LDR       A3, [A2, #44]         ; [DPU_V7M3_PIPE] |1916| 
        LDR       A2, [SP, #8]          ; [DPU_V7M3_PIPE] |1916| 
        LSLS      A1, A3, #2            ; [DPU_V7M3_PIPE] |1916| 
        ADD       A1, A1, A3, LSL #4    ; [DPU_V7M3_PIPE] |1916| 
        ADDS      A2, A2, #4            ; [DPU_V7M3_PIPE] |1916| 
        ADDS      A1, A1, A4            ; [DPU_V7M3_PIPE] |1916| 
$C$DW$214	.dwtag  DW_TAG_TI_branch
	.dwattr $C$DW$214, DW_AT_low_pc(0x00)
	.dwattr $C$DW$214, DW_AT_name("vListInsertEnd")
	.dwattr $C$DW$214, DW_AT_TI_call

        BL        vListInsertEnd        ; [DPU_V7M3_PIPE] |1916| 
        ; CALL OCCURS {vListInsertEnd }  ; [] |1916| 
	.dwpsn	file "../Tivaware_Dep/third_party/FreeRTOS/Source/tasks.c",line 1917,column 5,is_stmt,isa 1
        B         ||$C$L74||            ; [DPU_V7M3_PIPE] |1917| 
        ; BRANCH OCCURS {||$C$L74||}     ; [] |1917| 
;* --------------------------------------------------------------------------*
||$C$L73||:    
	.dwpsn	file "../Tivaware_Dep/third_party/FreeRTOS/Source/tasks.c",line 1923,column 6,is_stmt,isa 1
        LDR       A2, [SP, #8]          ; [DPU_V7M3_PIPE] |1923| 
        LDR       A1, $C$CON48          ; [DPU_V7M3_PIPE] |1923| 
        ADDS      A2, A2, #24           ; [DPU_V7M3_PIPE] |1923| 
$C$DW$215	.dwtag  DW_TAG_TI_branch
	.dwattr $C$DW$215, DW_AT_low_pc(0x00)
	.dwattr $C$DW$215, DW_AT_name("vListInsertEnd")
	.dwattr $C$DW$215, DW_AT_TI_call

        BL        vListInsertEnd        ; [DPU_V7M3_PIPE] |1923| 
        ; CALL OCCURS {vListInsertEnd }  ; [] |1923| 
	.dwpsn	file "../Tivaware_Dep/third_party/FreeRTOS/Source/tasks.c",line 1925,column 4,is_stmt,isa 1
;* --------------------------------------------------------------------------*
||$C$L74||:    
	.dwpsn	file "../Tivaware_Dep/third_party/FreeRTOS/Source/tasks.c",line 1931,column 3,is_stmt,isa 1
        LDR       A1, [SP, #12]         ; [DPU_V7M3_PIPE] |1931| 
        MSR       BASEPRI, A1           ; [DPU_V7M3_PIPE] |1931| 
	.dwpsn	file "../Tivaware_Dep/third_party/FreeRTOS/Source/tasks.c",line 1933,column 3,is_stmt,isa 1
        LDR       A1, [SP, #4]          ; [DPU_V7M3_PIPE] |1933| 
	.dwpsn	file "../Tivaware_Dep/third_party/FreeRTOS/Source/tasks.c",line 1934,column 2,is_stmt,isa 1
        STR       A1, [SP, #0]          ; [DPU_V7M3_PIPE] 
$C$DW$216	.dwtag  DW_TAG_TI_branch
	.dwattr $C$DW$216, DW_AT_low_pc(0x00)
	.dwattr $C$DW$216, DW_AT_TI_return

        POP       {A1, A2, A3, A4, V1, PC} ; [DPU_V7M3_PIPE] 
	.dwcfi	cfa_offset, 0
	.dwcfi	restore_reg, 4
	.dwcfi	restore_reg, 3
	.dwcfi	restore_reg, 2
	.dwcfi	restore_reg, 1
	.dwcfi	restore_reg, 0
        ; BRANCH OCCURS                  ; [] 
	.dwattr $C$DW$206, DW_AT_TI_end_file("../Tivaware_Dep/third_party/FreeRTOS/Source/tasks.c")
	.dwattr $C$DW$206, DW_AT_TI_end_line(0x78e)
	.dwattr $C$DW$206, DW_AT_TI_end_column(0x02)
	.dwendentry
	.dwendtag $C$DW$206

	.sect	".text:vTaskStartScheduler"
	.clink
	.thumbfunc vTaskStartScheduler
	.thumb
	.global	vTaskStartScheduler

$C$DW$217	.dwtag  DW_TAG_subprogram
	.dwattr $C$DW$217, DW_AT_name("vTaskStartScheduler")
	.dwattr $C$DW$217, DW_AT_low_pc(vTaskStartScheduler)
	.dwattr $C$DW$217, DW_AT_high_pc(0x00)
	.dwattr $C$DW$217, DW_AT_TI_symbol_name("vTaskStartScheduler")
	.dwattr $C$DW$217, DW_AT_external
	.dwattr $C$DW$217, DW_AT_TI_begin_file("../Tivaware_Dep/third_party/FreeRTOS/Source/tasks.c")
	.dwattr $C$DW$217, DW_AT_TI_begin_line(0x793)
	.dwattr $C$DW$217, DW_AT_TI_begin_column(0x06)
	.dwattr $C$DW$217, DW_AT_decl_file("../Tivaware_Dep/third_party/FreeRTOS/Source/tasks.c")
	.dwattr $C$DW$217, DW_AT_decl_line(0x793)
	.dwattr $C$DW$217, DW_AT_decl_column(0x06)
	.dwattr $C$DW$217, DW_AT_TI_max_frame_size(0x10)
	.dwpsn	file "../Tivaware_Dep/third_party/FreeRTOS/Source/tasks.c",line 1940,column 1,is_stmt,address vTaskStartScheduler,isa 1

	.dwfde $C$DW$CIE, vTaskStartScheduler

;*****************************************************************************
;* FUNCTION NAME: vTaskStartScheduler                                        *
;*                                                                           *
;*   Regs Modified     : A1,A2,A3,A4,V9,SP,LR,SR,D0,D0_hi,D1,D1_hi,D2,D2_hi, *
;*                           D3,D3_hi,D4,D4_hi,D5,D5_hi,D6,D6_hi,D7,D7_hi,   *
;*                           FPEXC,FPSCR                                     *
;*   Regs Used         : A1,A2,A3,A4,V9,SP,LR,SR,D0,D0_hi,D1,D1_hi,D2,D2_hi, *
;*                           D3,D3_hi,D4,D4_hi,D5,D5_hi,D6,D6_hi,D7,D7_hi,   *
;*                           FPEXC,FPSCR                                     *
;*   Local Frame Size  : 8 Args + 4 Auto + 4 Save = 16 byte                  *
;*****************************************************************************
vTaskStartScheduler:
;* --------------------------------------------------------------------------*
	.dwcfi	cfa_offset, 0
        PUSH      {A2, A3, A4, LR}      ; [DPU_V7M3_PIPE] 
	.dwcfi	cfa_offset, 16
	.dwcfi	save_reg_to_mem, 14, -4
	.dwcfi	save_reg_to_mem, 3, -8
	.dwcfi	save_reg_to_mem, 2, -12
	.dwcfi	save_reg_to_mem, 1, -16
$C$DW$218	.dwtag  DW_TAG_variable
	.dwattr $C$DW$218, DW_AT_name("xReturn")
	.dwattr $C$DW$218, DW_AT_TI_symbol_name("xReturn")
	.dwattr $C$DW$218, DW_AT_type(*$C$DW$T$93)
	.dwattr $C$DW$218, DW_AT_location[DW_OP_breg13 8]

	.dwpsn	file "../Tivaware_Dep/third_party/FreeRTOS/Source/tasks.c",line 1973,column 3,is_stmt,isa 1
        MOVS      A1, #0                ; [DPU_V7M3_PIPE] |1973| 
        STR       A1, [SP, #0]          ; [DPU_V7M3_PIPE] |1973| 
        LDR       A1, $C$CON49          ; [DPU_V7M3_PIPE] |1973| 
        STR       A1, [SP, #4]          ; [DPU_V7M3_PIPE] |1973| 
        LDR       A1, $C$CON50          ; [DPU_V7M3_PIPE] |1973| 
        ADR       A2, $C$SL1            ; [DPU_V7M3_PIPE] |1973| 
        MOVS      A3, #200              ; [DPU_V7M3_PIPE] |1973| 
        MOVS      A4, #0                ; [DPU_V7M3_PIPE] |1973| 
$C$DW$219	.dwtag  DW_TAG_TI_branch
	.dwattr $C$DW$219, DW_AT_low_pc(0x00)
	.dwattr $C$DW$219, DW_AT_name("xTaskCreate")
	.dwattr $C$DW$219, DW_AT_TI_call

        BL        xTaskCreate           ; [DPU_V7M3_PIPE] |1973| 
        ; CALL OCCURS {xTaskCreate }     ; [] |1973| 
        STR       A1, [SP, #8]          ; [DPU_V7M3_PIPE] |1973| 
	.dwpsn	file "../Tivaware_Dep/third_party/FreeRTOS/Source/tasks.c",line 1995,column 2,is_stmt,isa 1
        LDR       A1, [SP, #8]          ; [DPU_V7M3_PIPE] |1995| 
        CMP       A1, #1                ; [DPU_V7M3_PIPE] |1995| 
        BNE       ||$C$L75||            ; [DPU_V7M3_PIPE] |1995| 
        ; BRANCHCC OCCURS {||$C$L75||}   ; [] |1995| 
;* --------------------------------------------------------------------------*
	.dwpsn	file "../Tivaware_Dep/third_party/FreeRTOS/Source/tasks.c",line 2011,column 3,is_stmt,isa 1
        MOVS      A1, #160              ; [DPU_V7M3_PIPE] |2011| 
        MSR       BASEPRI, A1           ; [DPU_V7M3_PIPE] |2011| 
	dsb
	isb
	.dwpsn	file "../Tivaware_Dep/third_party/FreeRTOS/Source/tasks.c",line 2021,column 3,is_stmt,isa 1
        LDR       A2, $C$CON51          ; [DPU_V7M3_PIPE] |2021| 
        MOV       A1, #-1               ; [DPU_V7M3_PIPE] |2021| 
        STR       A1, [A2, #0]          ; [DPU_V7M3_PIPE] |2021| 
	.dwpsn	file "../Tivaware_Dep/third_party/FreeRTOS/Source/tasks.c",line 2022,column 3,is_stmt,isa 1
        LDR       A2, $C$CON52          ; [DPU_V7M3_PIPE] |2022| 
        MOVS      A1, #1                ; [DPU_V7M3_PIPE] |2022| 
        STR       A1, [A2, #0]          ; [DPU_V7M3_PIPE] |2022| 
	.dwpsn	file "../Tivaware_Dep/third_party/FreeRTOS/Source/tasks.c",line 2023,column 3,is_stmt,isa 1
        LDR       A2, $C$CON53          ; [DPU_V7M3_PIPE] |2023| 
        MOVS      A1, #0                ; [DPU_V7M3_PIPE] |2023| 
        STR       A1, [A2, #0]          ; [DPU_V7M3_PIPE] |2023| 
	.dwpsn	file "../Tivaware_Dep/third_party/FreeRTOS/Source/tasks.c",line 2037,column 3,is_stmt,isa 1
$C$DW$220	.dwtag  DW_TAG_TI_branch
	.dwattr $C$DW$220, DW_AT_low_pc(0x00)
	.dwattr $C$DW$220, DW_AT_name("xPortStartScheduler")
	.dwattr $C$DW$220, DW_AT_TI_call

        BL        xPortStartScheduler   ; [DPU_V7M3_PIPE] |2037| 
        ; CALL OCCURS {xPortStartScheduler }  ; [] |2037| 
        CBNZ      A1, ||$C$L75||        ; [] 
        ; BRANCHCC OCCURS {||$C$L75||}   ; [] |2037| 
;* --------------------------------------------------------------------------*
	.dwpsn	file "../Tivaware_Dep/third_party/FreeRTOS/Source/tasks.c",line 2041,column 3,is_stmt,isa 1
	.dwpsn	file "../Tivaware_Dep/third_party/FreeRTOS/Source/tasks.c",line 2046,column 2,is_stmt,isa 1
        B         ||$C$L75||            ; [DPU_V7M3_PIPE] |2046| 
        ; BRANCH OCCURS {||$C$L75||}     ; [] |2046| 
;* --------------------------------------------------------------------------*
;* --------------------------------------------------------------------------*
||$C$L75||:    
$C$DW$221	.dwtag  DW_TAG_TI_branch
	.dwattr $C$DW$221, DW_AT_low_pc(0x00)
	.dwattr $C$DW$221, DW_AT_TI_return

        POP       {A2, A3, A4, PC}      ; [DPU_V7M3_PIPE] 
	.dwcfi	cfa_offset, 0
	.dwcfi	restore_reg, 3
	.dwcfi	restore_reg, 2
	.dwcfi	restore_reg, 1
        ; BRANCH OCCURS                  ; [] 
	.dwattr $C$DW$217, DW_AT_TI_end_file("../Tivaware_Dep/third_party/FreeRTOS/Source/tasks.c")
	.dwattr $C$DW$217, DW_AT_TI_end_line(0x80a)
	.dwattr $C$DW$217, DW_AT_TI_end_column(0x01)
	.dwendentry
	.dwendtag $C$DW$217

	.sect	".text:vTaskEndScheduler"
	.clink
	.thumbfunc vTaskEndScheduler
	.thumb
	.global	vTaskEndScheduler

$C$DW$222	.dwtag  DW_TAG_subprogram
	.dwattr $C$DW$222, DW_AT_name("vTaskEndScheduler")
	.dwattr $C$DW$222, DW_AT_low_pc(vTaskEndScheduler)
	.dwattr $C$DW$222, DW_AT_high_pc(0x00)
	.dwattr $C$DW$222, DW_AT_TI_symbol_name("vTaskEndScheduler")
	.dwattr $C$DW$222, DW_AT_external
	.dwattr $C$DW$222, DW_AT_TI_begin_file("../Tivaware_Dep/third_party/FreeRTOS/Source/tasks.c")
	.dwattr $C$DW$222, DW_AT_TI_begin_line(0x80d)
	.dwattr $C$DW$222, DW_AT_TI_begin_column(0x06)
	.dwattr $C$DW$222, DW_AT_decl_file("../Tivaware_Dep/third_party/FreeRTOS/Source/tasks.c")
	.dwattr $C$DW$222, DW_AT_decl_line(0x80d)
	.dwattr $C$DW$222, DW_AT_decl_column(0x06)
	.dwattr $C$DW$222, DW_AT_TI_max_frame_size(0x08)
	.dwpsn	file "../Tivaware_Dep/third_party/FreeRTOS/Source/tasks.c",line 2062,column 1,is_stmt,address vTaskEndScheduler,isa 1

	.dwfde $C$DW$CIE, vTaskEndScheduler

;*****************************************************************************
;* FUNCTION NAME: vTaskEndScheduler                                          *
;*                                                                           *
;*   Regs Modified     : A1,A2,A3,A4,V9,SP,LR,SR,D0,D0_hi,D1,D1_hi,D2,D2_hi, *
;*                           D3,D3_hi,D4,D4_hi,D5,D5_hi,D6,D6_hi,D7,D7_hi,   *
;*                           FPEXC,FPSCR                                     *
;*   Regs Used         : A1,A2,A3,A4,V9,SP,LR,SR,D0,D0_hi,D1,D1_hi,D2,D2_hi, *
;*                           D3,D3_hi,D4,D4_hi,D5,D5_hi,D6,D6_hi,D7,D7_hi,   *
;*                           FPEXC,FPSCR                                     *
;*   Local Frame Size  : 0 Args + 0 Auto + 4 Save = 4 byte                   *
;*****************************************************************************
vTaskEndScheduler:
;* --------------------------------------------------------------------------*
	.dwcfi	cfa_offset, 0
        PUSH      {A4, LR}              ; [DPU_V7M3_PIPE] 
	.dwcfi	cfa_offset, 8
	.dwcfi	save_reg_to_mem, 14, -4
	.dwcfi	save_reg_to_mem, 3, -8
	.dwpsn	file "../Tivaware_Dep/third_party/FreeRTOS/Source/tasks.c",line 2066,column 2,is_stmt,isa 1
        MOVS      A1, #160              ; [DPU_V7M3_PIPE] |2066| 
        MSR       BASEPRI, A1           ; [DPU_V7M3_PIPE] |2066| 
	dsb
	isb
	.dwpsn	file "../Tivaware_Dep/third_party/FreeRTOS/Source/tasks.c",line 2067,column 2,is_stmt,isa 1
        LDR       A2, $C$CON54          ; [DPU_V7M3_PIPE] |2067| 
        MOVS      A1, #0                ; [DPU_V7M3_PIPE] |2067| 
        STR       A1, [A2, #0]          ; [DPU_V7M3_PIPE] |2067| 
	.dwpsn	file "../Tivaware_Dep/third_party/FreeRTOS/Source/tasks.c",line 2068,column 2,is_stmt,isa 1
$C$DW$223	.dwtag  DW_TAG_TI_branch
	.dwattr $C$DW$223, DW_AT_low_pc(0x00)
	.dwattr $C$DW$223, DW_AT_name("vPortEndScheduler")
	.dwattr $C$DW$223, DW_AT_TI_call

        BL        vPortEndScheduler     ; [DPU_V7M3_PIPE] |2068| 
        ; CALL OCCURS {vPortEndScheduler }  ; [] |2068| 
	.dwpsn	file "../Tivaware_Dep/third_party/FreeRTOS/Source/tasks.c",line 2069,column 1,is_stmt,isa 1
$C$DW$224	.dwtag  DW_TAG_TI_branch
	.dwattr $C$DW$224, DW_AT_low_pc(0x00)
	.dwattr $C$DW$224, DW_AT_TI_return

        POP       {A4, PC}              ; [DPU_V7M3_PIPE] 
	.dwcfi	cfa_offset, 0
	.dwcfi	restore_reg, 3
        ; BRANCH OCCURS                  ; [] 
	.dwattr $C$DW$222, DW_AT_TI_end_file("../Tivaware_Dep/third_party/FreeRTOS/Source/tasks.c")
	.dwattr $C$DW$222, DW_AT_TI_end_line(0x815)
	.dwattr $C$DW$222, DW_AT_TI_end_column(0x01)
	.dwendentry
	.dwendtag $C$DW$222

	.sect	".text:vTaskSuspendAll"
	.clink
	.thumbfunc vTaskSuspendAll
	.thumb
	.global	vTaskSuspendAll

$C$DW$225	.dwtag  DW_TAG_subprogram
	.dwattr $C$DW$225, DW_AT_name("vTaskSuspendAll")
	.dwattr $C$DW$225, DW_AT_low_pc(vTaskSuspendAll)
	.dwattr $C$DW$225, DW_AT_high_pc(0x00)
	.dwattr $C$DW$225, DW_AT_TI_symbol_name("vTaskSuspendAll")
	.dwattr $C$DW$225, DW_AT_external
	.dwattr $C$DW$225, DW_AT_TI_begin_file("../Tivaware_Dep/third_party/FreeRTOS/Source/tasks.c")
	.dwattr $C$DW$225, DW_AT_TI_begin_line(0x818)
	.dwattr $C$DW$225, DW_AT_TI_begin_column(0x06)
	.dwattr $C$DW$225, DW_AT_decl_file("../Tivaware_Dep/third_party/FreeRTOS/Source/tasks.c")
	.dwattr $C$DW$225, DW_AT_decl_line(0x818)
	.dwattr $C$DW$225, DW_AT_decl_column(0x06)
	.dwattr $C$DW$225, DW_AT_TI_max_frame_size(0x00)
	.dwpsn	file "../Tivaware_Dep/third_party/FreeRTOS/Source/tasks.c",line 2073,column 1,is_stmt,address vTaskSuspendAll,isa 1

	.dwfde $C$DW$CIE, vTaskSuspendAll

;*****************************************************************************
;* FUNCTION NAME: vTaskSuspendAll                                            *
;*                                                                           *
;*   Regs Modified     : A1,A2,SR                                            *
;*   Regs Used         : A1,A2,LR,SR                                         *
;*   Local Frame Size  : 0 Args + 0 Auto + 0 Save = 0 byte                   *
;*****************************************************************************
vTaskSuspendAll:
;* --------------------------------------------------------------------------*
	.dwcfi	cfa_offset, 0
	.dwpsn	file "../Tivaware_Dep/third_party/FreeRTOS/Source/tasks.c",line 2078,column 2,is_stmt,isa 1
        LDR       A2, $C$CON55          ; [DPU_V7M3_PIPE] |2078| 
        LDR       A1, [A2, #0]          ; [DPU_V7M3_PIPE] |2078| 
        ADDS      A1, A1, #1            ; [DPU_V7M3_PIPE] |2078| 
        STR       A1, [A2, #0]          ; [DPU_V7M3_PIPE] |2078| 
	.dwpsn	file "../Tivaware_Dep/third_party/FreeRTOS/Source/tasks.c",line 2079,column 1,is_stmt,isa 1
$C$DW$226	.dwtag  DW_TAG_TI_branch
	.dwattr $C$DW$226, DW_AT_low_pc(0x00)
	.dwattr $C$DW$226, DW_AT_TI_return

        BX        LR                    ; [DPU_V7M3_PIPE] 
        ; BRANCH OCCURS                  ; [] 
	.dwattr $C$DW$225, DW_AT_TI_end_file("../Tivaware_Dep/third_party/FreeRTOS/Source/tasks.c")
	.dwattr $C$DW$225, DW_AT_TI_end_line(0x81f)
	.dwattr $C$DW$225, DW_AT_TI_end_column(0x01)
	.dwendentry
	.dwendtag $C$DW$225

	.sect	".text:xTaskResumeAll"
	.clink
	.thumbfunc xTaskResumeAll
	.thumb
	.global	xTaskResumeAll

$C$DW$227	.dwtag  DW_TAG_subprogram
	.dwattr $C$DW$227, DW_AT_name("xTaskResumeAll")
	.dwattr $C$DW$227, DW_AT_low_pc(xTaskResumeAll)
	.dwattr $C$DW$227, DW_AT_high_pc(0x00)
	.dwattr $C$DW$227, DW_AT_TI_symbol_name("xTaskResumeAll")
	.dwattr $C$DW$227, DW_AT_external
	.dwattr $C$DW$227, DW_AT_type(*$C$DW$T$93)
	.dwattr $C$DW$227, DW_AT_TI_begin_file("../Tivaware_Dep/third_party/FreeRTOS/Source/tasks.c")
	.dwattr $C$DW$227, DW_AT_TI_begin_line(0x861)
	.dwattr $C$DW$227, DW_AT_TI_begin_column(0x0c)
	.dwattr $C$DW$227, DW_AT_decl_file("../Tivaware_Dep/third_party/FreeRTOS/Source/tasks.c")
	.dwattr $C$DW$227, DW_AT_decl_line(0x861)
	.dwattr $C$DW$227, DW_AT_decl_column(0x0c)
	.dwattr $C$DW$227, DW_AT_TI_max_frame_size(0x18)
	.dwpsn	file "../Tivaware_Dep/third_party/FreeRTOS/Source/tasks.c",line 2146,column 1,is_stmt,address xTaskResumeAll,isa 1

	.dwfde $C$DW$CIE, xTaskResumeAll

;*****************************************************************************
;* FUNCTION NAME: xTaskResumeAll                                             *
;*                                                                           *
;*   Regs Modified     : A1,A2,A3,A4,V1,V9,SP,LR,SR,D0,D0_hi,D1,D1_hi,D2,    *
;*                           D2_hi,D3,D3_hi,D4,D4_hi,D5,D5_hi,D6,D6_hi,D7,   *
;*                           D7_hi,FPEXC,FPSCR                               *
;*   Regs Used         : A1,A2,A3,A4,V1,V9,SP,LR,SR,D0,D0_hi,D1,D1_hi,D2,    *
;*                           D2_hi,D3,D3_hi,D4,D4_hi,D5,D5_hi,D6,D6_hi,D7,   *
;*                           D7_hi,FPEXC,FPSCR                               *
;*   Local Frame Size  : 0 Args + 12 Auto + 8 Save = 20 byte                 *
;*****************************************************************************
xTaskResumeAll:
;* --------------------------------------------------------------------------*
	.dwcfi	cfa_offset, 0
        PUSH      {A1, A2, A3, A4, V1, LR} ; [DPU_V7M3_PIPE] 
	.dwcfi	cfa_offset, 24
	.dwcfi	save_reg_to_mem, 14, -4
	.dwcfi	save_reg_to_mem, 4, -8
	.dwcfi	save_reg_to_mem, 3, -12
	.dwcfi	save_reg_to_mem, 2, -16
	.dwcfi	save_reg_to_mem, 1, -20
	.dwcfi	save_reg_to_mem, 0, -24
$C$DW$228	.dwtag  DW_TAG_variable
	.dwattr $C$DW$228, DW_AT_name("pxTCB")
	.dwattr $C$DW$228, DW_AT_TI_symbol_name("pxTCB")
	.dwattr $C$DW$228, DW_AT_type(*$C$DW$T$132)
	.dwattr $C$DW$228, DW_AT_location[DW_OP_breg13 0]

$C$DW$229	.dwtag  DW_TAG_variable
	.dwattr $C$DW$229, DW_AT_name("xAlreadyYielded")
	.dwattr $C$DW$229, DW_AT_TI_symbol_name("xAlreadyYielded")
	.dwattr $C$DW$229, DW_AT_type(*$C$DW$T$93)
	.dwattr $C$DW$229, DW_AT_location[DW_OP_breg13 4]

	.dwpsn	file "../Tivaware_Dep/third_party/FreeRTOS/Source/tasks.c",line 2147,column 14,is_stmt,isa 1
        MOVS      A1, #0                ; [DPU_V7M3_PIPE] |2147| 
        STR       A1, [SP, #0]          ; [DPU_V7M3_PIPE] |2147| 
	.dwpsn	file "../Tivaware_Dep/third_party/FreeRTOS/Source/tasks.c",line 2148,column 28,is_stmt,isa 1
        MOVS      A1, #0                ; [DPU_V7M3_PIPE] |2148| 
        STR       A1, [SP, #4]          ; [DPU_V7M3_PIPE] |2148| 
	.dwpsn	file "../Tivaware_Dep/third_party/FreeRTOS/Source/tasks.c",line 2159,column 2,is_stmt,isa 1
$C$DW$230	.dwtag  DW_TAG_TI_branch
	.dwattr $C$DW$230, DW_AT_low_pc(0x00)
	.dwattr $C$DW$230, DW_AT_name("vPortEnterCritical")
	.dwattr $C$DW$230, DW_AT_TI_call

        BL        vPortEnterCritical    ; [DPU_V7M3_PIPE] |2159| 
        ; CALL OCCURS {vPortEnterCritical }  ; [] |2159| 

$C$DW$231	.dwtag  DW_TAG_lexical_block
	.dwattr $C$DW$231, DW_AT_low_pc(0x00)
	.dwattr $C$DW$231, DW_AT_high_pc(0x00)
	.dwpsn	file "../Tivaware_Dep/third_party/FreeRTOS/Source/tasks.c",line 2161,column 3,is_stmt,isa 1
        LDR       A2, $C$CON56          ; [DPU_V7M3_PIPE] |2161| 
        LDR       A1, [A2, #0]          ; [DPU_V7M3_PIPE] |2161| 
        SUBS      A1, A1, #1            ; [DPU_V7M3_PIPE] |2161| 
        STR       A1, [A2, #0]          ; [DPU_V7M3_PIPE] |2161| 

$C$DW$232	.dwtag  DW_TAG_lexical_block
	.dwattr $C$DW$232, DW_AT_low_pc(0x00)
	.dwattr $C$DW$232, DW_AT_high_pc(0x00)
	.dwpsn	file "../Tivaware_Dep/third_party/FreeRTOS/Source/tasks.c",line 2163,column 3,is_stmt,isa 1
        LDR       A1, $C$CON56          ; [DPU_V7M3_PIPE] |2163| 
        LDR       A1, [A1, #0]          ; [DPU_V7M3_PIPE] |2163| 
        CMP       A1, #0                ; [DPU_V7M3_PIPE] |2163| 
        BNE       ||$C$L85||            ; [DPU_V7M3_PIPE] |2163| 
        ; BRANCHCC OCCURS {||$C$L85||}   ; [] |2163| 
;* --------------------------------------------------------------------------*

$C$DW$233	.dwtag  DW_TAG_lexical_block
	.dwattr $C$DW$233, DW_AT_low_pc(0x00)
	.dwattr $C$DW$233, DW_AT_high_pc(0x00)

$C$DW$234	.dwtag  DW_TAG_lexical_block
	.dwattr $C$DW$234, DW_AT_low_pc(0x00)
	.dwattr $C$DW$234, DW_AT_high_pc(0x00)
	.dwpsn	file "../Tivaware_Dep/third_party/FreeRTOS/Source/tasks.c",line 2165,column 4,is_stmt,isa 1
        LDR       A1, $C$CON57          ; [DPU_V7M3_PIPE] |2165| 
        LDR       A1, [A1, #0]          ; [DPU_V7M3_PIPE] |2165| 
        CMP       A1, #0                ; [DPU_V7M3_PIPE] |2165| 
        BEQ       ||$C$L85||            ; [DPU_V7M3_PIPE] |2165| 
        ; BRANCHCC OCCURS {||$C$L85||}   ; [] |2165| 
;* --------------------------------------------------------------------------*

$C$DW$235	.dwtag  DW_TAG_lexical_block
	.dwattr $C$DW$235, DW_AT_low_pc(0x00)
	.dwattr $C$DW$235, DW_AT_high_pc(0x00)
	.dwpsn	file "../Tivaware_Dep/third_party/FreeRTOS/Source/tasks.c",line 2169,column 5,is_stmt,isa 1
        B         ||$C$L77||            ; [DPU_V7M3_PIPE] |2169| 
        ; BRANCH OCCURS {||$C$L77||}     ; [] |2169| 
;* --------------------------------------------------------------------------*
||$C$L76||:    
	.dwpsn	file "../Tivaware_Dep/third_party/FreeRTOS/Source/tasks.c",line 2171,column 6,is_stmt,isa 1
        LDR       A1, $C$CON58          ; [DPU_V7M3_PIPE] |2171| 
        LDR       A1, [A1, #0]          ; [DPU_V7M3_PIPE] |2171| 
        LDR       A1, [A1, #12]         ; [DPU_V7M3_PIPE] |2171| 
        STR       A1, [SP, #0]          ; [DPU_V7M3_PIPE] |2171| 
	.dwpsn	file "../Tivaware_Dep/third_party/FreeRTOS/Source/tasks.c",line 2172,column 6,is_stmt,isa 1
        LDR       A1, [SP, #0]          ; [DPU_V7M3_PIPE] |2172| 
        ADDS      A1, A1, #24           ; [DPU_V7M3_PIPE] |2172| 
$C$DW$236	.dwtag  DW_TAG_TI_branch
	.dwattr $C$DW$236, DW_AT_low_pc(0x00)
	.dwattr $C$DW$236, DW_AT_name("uxListRemove")
	.dwattr $C$DW$236, DW_AT_TI_call

        BL        uxListRemove          ; [DPU_V7M3_PIPE] |2172| 
        ; CALL OCCURS {uxListRemove }    ; [] |2172| 
	.dwpsn	file "../Tivaware_Dep/third_party/FreeRTOS/Source/tasks.c",line 2173,column 6,is_stmt,isa 1
        LDR       A1, [SP, #0]          ; [DPU_V7M3_PIPE] |2173| 
        ADDS      A1, A1, #4            ; [DPU_V7M3_PIPE] |2173| 
$C$DW$237	.dwtag  DW_TAG_TI_branch
	.dwattr $C$DW$237, DW_AT_low_pc(0x00)
	.dwattr $C$DW$237, DW_AT_name("uxListRemove")
	.dwattr $C$DW$237, DW_AT_TI_call

        BL        uxListRemove          ; [DPU_V7M3_PIPE] |2173| 
        ; CALL OCCURS {uxListRemove }    ; [] |2173| 
	.dwpsn	file "../Tivaware_Dep/third_party/FreeRTOS/Source/tasks.c",line 2174,column 6,is_stmt,isa 1
        LDR       A1, [SP, #0]          ; [DPU_V7M3_PIPE] |2174| 
        LDR       A3, $C$CON59          ; [DPU_V7M3_PIPE] |2174| 
        LDR       V1, [A1, #44]         ; [DPU_V7M3_PIPE] |2174| 
        LDR       A2, [SP, #0]          ; [DPU_V7M3_PIPE] |2174| 
        LDR       A4, [A3, #0]          ; [DPU_V7M3_PIPE] |2174| 
        MOVS      A1, #1                ; [DPU_V7M3_PIPE] |2174| 
        LSLS      A1, A1, V1            ; [DPU_V7M3_PIPE] |2174| 
        ORRS      A1, A1, A4            ; [DPU_V7M3_PIPE] |2174| 
        STR       A1, [A3, #0]          ; [DPU_V7M3_PIPE] |2174| 
        LDR       A4, $C$CON60          ; [DPU_V7M3_PIPE] |2174| 
        LDR       A3, [A2, #44]         ; [DPU_V7M3_PIPE] |2174| 
        LDR       A2, [SP, #0]          ; [DPU_V7M3_PIPE] |2174| 
        LSLS      A1, A3, #2            ; [DPU_V7M3_PIPE] |2174| 
        ADD       A1, A1, A3, LSL #4    ; [DPU_V7M3_PIPE] |2174| 
        ADDS      A2, A2, #4            ; [DPU_V7M3_PIPE] |2174| 
        ADDS      A1, A1, A4            ; [DPU_V7M3_PIPE] |2174| 
$C$DW$238	.dwtag  DW_TAG_TI_branch
	.dwattr $C$DW$238, DW_AT_low_pc(0x00)
	.dwattr $C$DW$238, DW_AT_name("vListInsertEnd")
	.dwattr $C$DW$238, DW_AT_TI_call

        BL        vListInsertEnd        ; [DPU_V7M3_PIPE] |2174| 
        ; CALL OCCURS {vListInsertEnd }  ; [] |2174| 
	.dwpsn	file "../Tivaware_Dep/third_party/FreeRTOS/Source/tasks.c",line 2178,column 6,is_stmt,isa 1
        LDR       A1, $C$CON61          ; [DPU_V7M3_PIPE] |2178| 
        LDR       A2, [SP, #0]          ; [DPU_V7M3_PIPE] |2178| 
        LDR       A1, [A1, #0]          ; [DPU_V7M3_PIPE] |2178| 
        LDR       A2, [A2, #44]         ; [DPU_V7M3_PIPE] |2178| 
        LDR       A1, [A1, #44]         ; [DPU_V7M3_PIPE] |2178| 
        CMP       A1, A2                ; [DPU_V7M3_PIPE] |2178| 
        BHI       ||$C$L77||            ; [DPU_V7M3_PIPE] |2178| 
        ; BRANCHCC OCCURS {||$C$L77||}   ; [] |2178| 
;* --------------------------------------------------------------------------*
	.dwpsn	file "../Tivaware_Dep/third_party/FreeRTOS/Source/tasks.c",line 2180,column 7,is_stmt,isa 1
        LDR       A2, $C$CON62          ; [DPU_V7M3_PIPE] |2180| 
        MOVS      A1, #1                ; [DPU_V7M3_PIPE] |2180| 
        STR       A1, [A2, #0]          ; [DPU_V7M3_PIPE] |2180| 
	.dwpsn	file "../Tivaware_Dep/third_party/FreeRTOS/Source/tasks.c",line 2181,column 6,is_stmt,isa 1
;* --------------------------------------------------------------------------*
;*   BEGIN LOOP ||$C$L77||
;* --------------------------------------------------------------------------*
||$C$L77||:    
	.dwpsn	file "../Tivaware_Dep/third_party/FreeRTOS/Source/tasks.c",line 2169,column 12,is_stmt,isa 1
        LDR       A1, $C$CON63          ; [DPU_V7M3_PIPE] |2169| 
        LDR       A1, [A1, #0]          ; [DPU_V7M3_PIPE] |2169| 
        CBNZ      A1, ||$C$L78||        ; [] 
        ; BRANCHCC OCCURS {||$C$L78||}   ; [] |2169| 
;* --------------------------------------------------------------------------*
        MOVS      A1, #1                ; [DPU_V7M3_PIPE] |2169| 
        B         ||$C$L79||            ; [DPU_V7M3_PIPE] |2169| 
        ; BRANCH OCCURS {||$C$L79||}     ; [] |2169| 
;* --------------------------------------------------------------------------*
||$C$L78||:    
        MOVS      A1, #0                ; [DPU_V7M3_PIPE] |2169| 
;* --------------------------------------------------------------------------*
||$C$L79||:    
        CMP       A1, #0                ; [DPU_V7M3_PIPE] |2169| 
        BEQ       ||$C$L76||            ; [DPU_V7M3_PIPE] |2169| 
        ; BRANCHCC OCCURS {||$C$L76||}   ; [] |2169| 
;* --------------------------------------------------------------------------*
	.dwpsn	file "../Tivaware_Dep/third_party/FreeRTOS/Source/tasks.c",line 2188,column 5,is_stmt,isa 1
        LDR       A1, [SP, #0]          ; [DPU_V7M3_PIPE] |2188| 
        CBZ       A1, ||$C$L80||        ; [] 
        ; BRANCHCC OCCURS {||$C$L80||}   ; [] |2188| 
;* --------------------------------------------------------------------------*
	.dwpsn	file "../Tivaware_Dep/third_party/FreeRTOS/Source/tasks.c",line 2196,column 6,is_stmt,isa 1
$C$DW$239	.dwtag  DW_TAG_TI_branch
	.dwattr $C$DW$239, DW_AT_low_pc(0x00)
	.dwattr $C$DW$239, DW_AT_name("prvResetNextTaskUnblockTime")
	.dwattr $C$DW$239, DW_AT_TI_call

        BL        prvResetNextTaskUnblockTime ; [DPU_V7M3_PIPE] |2196| 
        ; CALL OCCURS {prvResetNextTaskUnblockTime }  ; [] |2196| 
;* --------------------------------------------------------------------------*
||$C$L80||:    

$C$DW$240	.dwtag  DW_TAG_lexical_block
	.dwattr $C$DW$240, DW_AT_low_pc(0x00)
	.dwattr $C$DW$240, DW_AT_high_pc(0x00)
$C$DW$241	.dwtag  DW_TAG_variable
	.dwattr $C$DW$241, DW_AT_name("uxPendedCounts")
	.dwattr $C$DW$241, DW_AT_TI_symbol_name("uxPendedCounts")
	.dwattr $C$DW$241, DW_AT_type(*$C$DW$T$26)
	.dwattr $C$DW$241, DW_AT_location[DW_OP_breg13 8]

	.dwpsn	file "../Tivaware_Dep/third_party/FreeRTOS/Source/tasks.c",line 2204,column 33,is_stmt,isa 1
        LDR       A1, $C$CON64          ; [DPU_V7M3_PIPE] |2204| 
        LDR       A1, [A1, #0]          ; [DPU_V7M3_PIPE] |2204| 
        STR       A1, [SP, #8]          ; [DPU_V7M3_PIPE] |2204| 
	.dwpsn	file "../Tivaware_Dep/third_party/FreeRTOS/Source/tasks.c",line 2206,column 6,is_stmt,isa 1
        LDR       A1, [SP, #8]          ; [DPU_V7M3_PIPE] |2206| 
        CBZ       A1, ||$C$L83||        ; [] 
        ; BRANCHCC OCCURS {||$C$L83||}   ; [] |2206| 
;* --------------------------------------------------------------------------*
;*   BEGIN LOOP ||$C$L81||
;*
;*   Loop source line                : 2208
;*   Loop closing brace source line  : 2219
;*   Known Minimum Trip Count        : 1
;*   Known Maximum Trip Count        : 4294967295
;*   Known Max Trip Count Factor     : 1
;* --------------------------------------------------------------------------*
||$C$L81||:    
	.dwpsn	file "../Tivaware_Dep/third_party/FreeRTOS/Source/tasks.c",line 2210,column 8,is_stmt,isa 1
$C$DW$242	.dwtag  DW_TAG_TI_branch
	.dwattr $C$DW$242, DW_AT_low_pc(0x00)
	.dwattr $C$DW$242, DW_AT_name("xTaskIncrementTick")
	.dwattr $C$DW$242, DW_AT_TI_call

        BL        xTaskIncrementTick    ; [DPU_V7M3_PIPE] |2210| 
        ; CALL OCCURS {xTaskIncrementTick }  ; [] |2210| 
        CBZ       A1, ||$C$L82||        ; [] 
        ; BRANCHCC OCCURS {||$C$L82||}   ; [] |2210| 
;* --------------------------------------------------------------------------*
	.dwpsn	file "../Tivaware_Dep/third_party/FreeRTOS/Source/tasks.c",line 2212,column 9,is_stmt,isa 1
        LDR       A2, $C$CON62          ; [DPU_V7M3_PIPE] |2212| 
        MOVS      A1, #1                ; [DPU_V7M3_PIPE] |2212| 
        STR       A1, [A2, #0]          ; [DPU_V7M3_PIPE] |2212| 
	.dwpsn	file "../Tivaware_Dep/third_party/FreeRTOS/Source/tasks.c",line 2213,column 8,is_stmt,isa 1
;* --------------------------------------------------------------------------*
||$C$L82||:    
	.dwpsn	file "../Tivaware_Dep/third_party/FreeRTOS/Source/tasks.c",line 2218,column 8,is_stmt,isa 1
        LDR       A1, [SP, #8]          ; [DPU_V7M3_PIPE] |2218| 
        SUBS      A1, A1, #1            ; [DPU_V7M3_PIPE] |2218| 
        STR       A1, [SP, #8]          ; [DPU_V7M3_PIPE] |2218| 
	.dwpsn	file "../Tivaware_Dep/third_party/FreeRTOS/Source/tasks.c",line 2219,column 16,is_stmt,isa 1
        LDR       A1, [SP, #8]          ; [DPU_V7M3_PIPE] |2219| 
        CMP       A1, #0                ; [DPU_V7M3_PIPE] |2219| 
        BNE       ||$C$L81||            ; [DPU_V7M3_PIPE] |2219| 
        ; BRANCHCC OCCURS {||$C$L81||}   ; [] |2219| 
;* --------------------------------------------------------------------------*
	.dwpsn	file "../Tivaware_Dep/third_party/FreeRTOS/Source/tasks.c",line 2221,column 7,is_stmt,isa 1
        LDR       A2, $C$CON64          ; [DPU_V7M3_PIPE] |2221| 
        MOVS      A1, #0                ; [DPU_V7M3_PIPE] |2221| 
        STR       A1, [A2, #0]          ; [DPU_V7M3_PIPE] |2221| 
	.dwpsn	file "../Tivaware_Dep/third_party/FreeRTOS/Source/tasks.c",line 2222,column 6,is_stmt,isa 1
;* --------------------------------------------------------------------------*
||$C$L83||:    
	.dwendtag $C$DW$240

	.dwpsn	file "../Tivaware_Dep/third_party/FreeRTOS/Source/tasks.c",line 2229,column 5,is_stmt,isa 1
        LDR       A1, $C$CON62          ; [DPU_V7M3_PIPE] |2229| 
        LDR       A1, [A1, #0]          ; [DPU_V7M3_PIPE] |2229| 
        CBZ       A1, ||$C$L84||        ; [] 
        ; BRANCHCC OCCURS {||$C$L84||}   ; [] |2229| 
;* --------------------------------------------------------------------------*
	.dwpsn	file "../Tivaware_Dep/third_party/FreeRTOS/Source/tasks.c",line 2233,column 7,is_stmt,isa 1
        MOVS      A1, #1                ; [DPU_V7M3_PIPE] |2233| 
        STR       A1, [SP, #4]          ; [DPU_V7M3_PIPE] |2233| 
	.dwpsn	file "../Tivaware_Dep/third_party/FreeRTOS/Source/tasks.c",line 2236,column 6,is_stmt,isa 1
        LDR       A2, $C$CON65          ; [DPU_V7M3_PIPE] |2236| 
        MOV       A1, #268435456        ; [DPU_V7M3_PIPE] |2236| 
        STR       A1, [A2, #0]          ; [DPU_V7M3_PIPE] |2236| 
	dsb
	isb
	.dwpsn	file "../Tivaware_Dep/third_party/FreeRTOS/Source/tasks.c",line 2237,column 5,is_stmt,isa 1
;* --------------------------------------------------------------------------*
||$C$L84||:    
	.dwendtag $C$DW$235

	.dwendtag $C$DW$234

	.dwendtag $C$DW$233

	.dwpsn	file "../Tivaware_Dep/third_party/FreeRTOS/Source/tasks.c",line 2243,column 3,is_stmt,isa 1
;* --------------------------------------------------------------------------*
||$C$L85||:    
	.dwendtag $C$DW$232

	.dwendtag $C$DW$231

	.dwpsn	file "../Tivaware_Dep/third_party/FreeRTOS/Source/tasks.c",line 2249,column 2,is_stmt,isa 1
$C$DW$243	.dwtag  DW_TAG_TI_branch
	.dwattr $C$DW$243, DW_AT_low_pc(0x00)
	.dwattr $C$DW$243, DW_AT_name("vPortExitCritical")
	.dwattr $C$DW$243, DW_AT_TI_call

        BL        vPortExitCritical     ; [DPU_V7M3_PIPE] |2249| 
        ; CALL OCCURS {vPortExitCritical }  ; [] |2249| 
	.dwpsn	file "../Tivaware_Dep/third_party/FreeRTOS/Source/tasks.c",line 2251,column 2,is_stmt,isa 1
        LDR       A1, [SP, #4]          ; [DPU_V7M3_PIPE] |2251| 
	.dwpsn	file "../Tivaware_Dep/third_party/FreeRTOS/Source/tasks.c",line 2252,column 1,is_stmt,isa 1
        STR       A1, [SP, #0]          ; [DPU_V7M3_PIPE] 
$C$DW$244	.dwtag  DW_TAG_TI_branch
	.dwattr $C$DW$244, DW_AT_low_pc(0x00)
	.dwattr $C$DW$244, DW_AT_TI_return

        POP       {A1, A2, A3, A4, V1, PC} ; [DPU_V7M3_PIPE] 
	.dwcfi	cfa_offset, 0
	.dwcfi	restore_reg, 4
	.dwcfi	restore_reg, 3
	.dwcfi	restore_reg, 2
	.dwcfi	restore_reg, 1
	.dwcfi	restore_reg, 0
        ; BRANCH OCCURS                  ; [] 
	.dwattr $C$DW$227, DW_AT_TI_end_file("../Tivaware_Dep/third_party/FreeRTOS/Source/tasks.c")
	.dwattr $C$DW$227, DW_AT_TI_end_line(0x8cc)
	.dwattr $C$DW$227, DW_AT_TI_end_column(0x01)
	.dwendentry
	.dwendtag $C$DW$227

	.sect	".text:xTaskGetTickCount"
	.clink
	.thumbfunc xTaskGetTickCount
	.thumb
	.global	xTaskGetTickCount

$C$DW$245	.dwtag  DW_TAG_subprogram
	.dwattr $C$DW$245, DW_AT_name("xTaskGetTickCount")
	.dwattr $C$DW$245, DW_AT_low_pc(xTaskGetTickCount)
	.dwattr $C$DW$245, DW_AT_high_pc(0x00)
	.dwattr $C$DW$245, DW_AT_TI_symbol_name("xTaskGetTickCount")
	.dwattr $C$DW$245, DW_AT_external
	.dwattr $C$DW$245, DW_AT_type(*$C$DW$T$50)
	.dwattr $C$DW$245, DW_AT_TI_begin_file("../Tivaware_Dep/third_party/FreeRTOS/Source/tasks.c")
	.dwattr $C$DW$245, DW_AT_TI_begin_line(0x8cf)
	.dwattr $C$DW$245, DW_AT_TI_begin_column(0x0c)
	.dwattr $C$DW$245, DW_AT_decl_file("../Tivaware_Dep/third_party/FreeRTOS/Source/tasks.c")
	.dwattr $C$DW$245, DW_AT_decl_line(0x8cf)
	.dwattr $C$DW$245, DW_AT_decl_column(0x0c)
	.dwattr $C$DW$245, DW_AT_TI_max_frame_size(0x08)
	.dwpsn	file "../Tivaware_Dep/third_party/FreeRTOS/Source/tasks.c",line 2256,column 1,is_stmt,address xTaskGetTickCount,isa 1

	.dwfde $C$DW$CIE, xTaskGetTickCount

;*****************************************************************************
;* FUNCTION NAME: xTaskGetTickCount                                          *
;*                                                                           *
;*   Regs Modified     : A1,SP                                               *
;*   Regs Used         : A1,SP,LR                                            *
;*   Local Frame Size  : 0 Args + 4 Auto + 0 Save = 4 byte                   *
;*****************************************************************************
xTaskGetTickCount:
;* --------------------------------------------------------------------------*
	.dwcfi	cfa_offset, 0
        SUB       SP, SP, #8            ; [DPU_V7M3_PIPE] 
	.dwcfi	cfa_offset, 8
$C$DW$246	.dwtag  DW_TAG_variable
	.dwattr $C$DW$246, DW_AT_name("xTicks")
	.dwattr $C$DW$246, DW_AT_TI_symbol_name("xTicks")
	.dwattr $C$DW$246, DW_AT_type(*$C$DW$T$50)
	.dwattr $C$DW$246, DW_AT_location[DW_OP_breg13 0]

	.dwpsn	file "../Tivaware_Dep/third_party/FreeRTOS/Source/tasks.c",line 2262,column 3,is_stmt,isa 1
        LDR       A1, $C$CON66          ; [DPU_V7M3_PIPE] |2262| 
        LDR       A1, [A1, #0]          ; [DPU_V7M3_PIPE] |2262| 
        STR       A1, [SP, #0]          ; [DPU_V7M3_PIPE] |2262| 
	.dwpsn	file "../Tivaware_Dep/third_party/FreeRTOS/Source/tasks.c",line 2266,column 2,is_stmt,isa 1
        LDR       A1, [SP, #0]          ; [DPU_V7M3_PIPE] |2266| 
	.dwpsn	file "../Tivaware_Dep/third_party/FreeRTOS/Source/tasks.c",line 2267,column 1,is_stmt,isa 1
        ADD       SP, SP, #8            ; [DPU_V7M3_PIPE] 
	.dwcfi	cfa_offset, 0
$C$DW$247	.dwtag  DW_TAG_TI_branch
	.dwattr $C$DW$247, DW_AT_low_pc(0x00)
	.dwattr $C$DW$247, DW_AT_TI_return

        BX        LR                    ; [DPU_V7M3_PIPE] 
        ; BRANCH OCCURS                  ; [] 
	.dwattr $C$DW$245, DW_AT_TI_end_file("../Tivaware_Dep/third_party/FreeRTOS/Source/tasks.c")
	.dwattr $C$DW$245, DW_AT_TI_end_line(0x8db)
	.dwattr $C$DW$245, DW_AT_TI_end_column(0x01)
	.dwendentry
	.dwendtag $C$DW$245

	.sect	".text:xTaskGetTickCountFromISR"
	.clink
	.thumbfunc xTaskGetTickCountFromISR
	.thumb
	.global	xTaskGetTickCountFromISR

$C$DW$248	.dwtag  DW_TAG_subprogram
	.dwattr $C$DW$248, DW_AT_name("xTaskGetTickCountFromISR")
	.dwattr $C$DW$248, DW_AT_low_pc(xTaskGetTickCountFromISR)
	.dwattr $C$DW$248, DW_AT_high_pc(0x00)
	.dwattr $C$DW$248, DW_AT_TI_symbol_name("xTaskGetTickCountFromISR")
	.dwattr $C$DW$248, DW_AT_external
	.dwattr $C$DW$248, DW_AT_type(*$C$DW$T$50)
	.dwattr $C$DW$248, DW_AT_TI_begin_file("../Tivaware_Dep/third_party/FreeRTOS/Source/tasks.c")
	.dwattr $C$DW$248, DW_AT_TI_begin_line(0x8de)
	.dwattr $C$DW$248, DW_AT_TI_begin_column(0x0c)
	.dwattr $C$DW$248, DW_AT_decl_file("../Tivaware_Dep/third_party/FreeRTOS/Source/tasks.c")
	.dwattr $C$DW$248, DW_AT_decl_line(0x8de)
	.dwattr $C$DW$248, DW_AT_decl_column(0x0c)
	.dwattr $C$DW$248, DW_AT_TI_max_frame_size(0x08)
	.dwpsn	file "../Tivaware_Dep/third_party/FreeRTOS/Source/tasks.c",line 2271,column 1,is_stmt,address xTaskGetTickCountFromISR,isa 1

	.dwfde $C$DW$CIE, xTaskGetTickCountFromISR

;*****************************************************************************
;* FUNCTION NAME: xTaskGetTickCountFromISR                                   *
;*                                                                           *
;*   Regs Modified     : A1,SP,SR                                            *
;*   Regs Used         : A1,SP,LR,SR                                         *
;*   Local Frame Size  : 0 Args + 8 Auto + 0 Save = 8 byte                   *
;*****************************************************************************
xTaskGetTickCountFromISR:
;* --------------------------------------------------------------------------*
	.dwcfi	cfa_offset, 0
        SUB       SP, SP, #8            ; [DPU_V7M3_PIPE] 
	.dwcfi	cfa_offset, 8
$C$DW$249	.dwtag  DW_TAG_variable
	.dwattr $C$DW$249, DW_AT_name("xReturn")
	.dwattr $C$DW$249, DW_AT_TI_symbol_name("xReturn")
	.dwattr $C$DW$249, DW_AT_type(*$C$DW$T$50)
	.dwattr $C$DW$249, DW_AT_location[DW_OP_breg13 0]

$C$DW$250	.dwtag  DW_TAG_variable
	.dwattr $C$DW$250, DW_AT_name("uxSavedInterruptStatus")
	.dwattr $C$DW$250, DW_AT_TI_symbol_name("uxSavedInterruptStatus")
	.dwattr $C$DW$250, DW_AT_type(*$C$DW$T$26)
	.dwattr $C$DW$250, DW_AT_location[DW_OP_breg13 4]

	.dwpsn	file "../Tivaware_Dep/third_party/FreeRTOS/Source/tasks.c",line 2291,column 2,is_stmt,isa 1
        MOVS      A1, #0                ; [DPU_V7M3_PIPE] |2291| 
        STR       A1, [SP, #4]          ; [DPU_V7M3_PIPE] |2291| 
	.dwpsn	file "../Tivaware_Dep/third_party/FreeRTOS/Source/tasks.c",line 2293,column 3,is_stmt,isa 1
        LDR       A1, $C$CON67          ; [DPU_V7M3_PIPE] |2293| 
        LDR       A1, [A1, #0]          ; [DPU_V7M3_PIPE] |2293| 
        STR       A1, [SP, #0]          ; [DPU_V7M3_PIPE] |2293| 
	.dwpsn	file "../Tivaware_Dep/third_party/FreeRTOS/Source/tasks.c",line 2295,column 2,is_stmt,isa 1
	.dwpsn	file "../Tivaware_Dep/third_party/FreeRTOS/Source/tasks.c",line 2297,column 2,is_stmt,isa 1
        LDR       A1, [SP, #0]          ; [DPU_V7M3_PIPE] |2297| 
	.dwpsn	file "../Tivaware_Dep/third_party/FreeRTOS/Source/tasks.c",line 2298,column 1,is_stmt,isa 1
        ADD       SP, SP, #8            ; [DPU_V7M3_PIPE] 
	.dwcfi	cfa_offset, 0
$C$DW$251	.dwtag  DW_TAG_TI_branch
	.dwattr $C$DW$251, DW_AT_low_pc(0x00)
	.dwattr $C$DW$251, DW_AT_TI_return

        BX        LR                    ; [DPU_V7M3_PIPE] 
        ; BRANCH OCCURS                  ; [] 
	.dwattr $C$DW$248, DW_AT_TI_end_file("../Tivaware_Dep/third_party/FreeRTOS/Source/tasks.c")
	.dwattr $C$DW$248, DW_AT_TI_end_line(0x8fa)
	.dwattr $C$DW$248, DW_AT_TI_end_column(0x01)
	.dwendentry
	.dwendtag $C$DW$248

	.sect	".text:uxTaskGetNumberOfTasks"
	.clink
	.thumbfunc uxTaskGetNumberOfTasks
	.thumb
	.global	uxTaskGetNumberOfTasks

$C$DW$252	.dwtag  DW_TAG_subprogram
	.dwattr $C$DW$252, DW_AT_name("uxTaskGetNumberOfTasks")
	.dwattr $C$DW$252, DW_AT_low_pc(uxTaskGetNumberOfTasks)
	.dwattr $C$DW$252, DW_AT_high_pc(0x00)
	.dwattr $C$DW$252, DW_AT_TI_symbol_name("uxTaskGetNumberOfTasks")
	.dwattr $C$DW$252, DW_AT_external
	.dwattr $C$DW$252, DW_AT_type(*$C$DW$T$26)
	.dwattr $C$DW$252, DW_AT_TI_begin_file("../Tivaware_Dep/third_party/FreeRTOS/Source/tasks.c")
	.dwattr $C$DW$252, DW_AT_TI_begin_line(0x8fd)
	.dwattr $C$DW$252, DW_AT_TI_begin_column(0x0d)
	.dwattr $C$DW$252, DW_AT_decl_file("../Tivaware_Dep/third_party/FreeRTOS/Source/tasks.c")
	.dwattr $C$DW$252, DW_AT_decl_line(0x8fd)
	.dwattr $C$DW$252, DW_AT_decl_column(0x0d)
	.dwattr $C$DW$252, DW_AT_TI_max_frame_size(0x00)
	.dwpsn	file "../Tivaware_Dep/third_party/FreeRTOS/Source/tasks.c",line 2302,column 1,is_stmt,address uxTaskGetNumberOfTasks,isa 1

	.dwfde $C$DW$CIE, uxTaskGetNumberOfTasks

;*****************************************************************************
;* FUNCTION NAME: uxTaskGetNumberOfTasks                                     *
;*                                                                           *
;*   Regs Modified     : A1                                                  *
;*   Regs Used         : A1,LR                                               *
;*   Local Frame Size  : 0 Args + 0 Auto + 0 Save = 0 byte                   *
;*****************************************************************************
uxTaskGetNumberOfTasks:
;* --------------------------------------------------------------------------*
	.dwcfi	cfa_offset, 0
	.dwpsn	file "../Tivaware_Dep/third_party/FreeRTOS/Source/tasks.c",line 2305,column 2,is_stmt,isa 1
        LDR       A1, $C$CON68          ; [DPU_V7M3_PIPE] |2305| 
        LDR       A1, [A1, #0]          ; [DPU_V7M3_PIPE] |2305| 
	.dwpsn	file "../Tivaware_Dep/third_party/FreeRTOS/Source/tasks.c",line 2306,column 1,is_stmt,isa 1
$C$DW$253	.dwtag  DW_TAG_TI_branch
	.dwattr $C$DW$253, DW_AT_low_pc(0x00)
	.dwattr $C$DW$253, DW_AT_TI_return

        BX        LR                    ; [DPU_V7M3_PIPE] 
        ; BRANCH OCCURS                  ; [] 
	.dwattr $C$DW$252, DW_AT_TI_end_file("../Tivaware_Dep/third_party/FreeRTOS/Source/tasks.c")
	.dwattr $C$DW$252, DW_AT_TI_end_line(0x902)
	.dwattr $C$DW$252, DW_AT_TI_end_column(0x01)
	.dwendentry
	.dwendtag $C$DW$252

	.sect	".text:pcTaskGetName"
	.clink
	.thumbfunc pcTaskGetName
	.thumb
	.global	pcTaskGetName

$C$DW$254	.dwtag  DW_TAG_subprogram
	.dwattr $C$DW$254, DW_AT_name("pcTaskGetName")
	.dwattr $C$DW$254, DW_AT_low_pc(pcTaskGetName)
	.dwattr $C$DW$254, DW_AT_high_pc(0x00)
	.dwattr $C$DW$254, DW_AT_TI_symbol_name("pcTaskGetName")
	.dwattr $C$DW$254, DW_AT_external
	.dwattr $C$DW$254, DW_AT_type(*$C$DW$T$124)
	.dwattr $C$DW$254, DW_AT_TI_begin_file("../Tivaware_Dep/third_party/FreeRTOS/Source/tasks.c")
	.dwattr $C$DW$254, DW_AT_TI_begin_line(0x905)
	.dwattr $C$DW$254, DW_AT_TI_begin_column(0x07)
	.dwattr $C$DW$254, DW_AT_decl_file("../Tivaware_Dep/third_party/FreeRTOS/Source/tasks.c")
	.dwattr $C$DW$254, DW_AT_decl_line(0x905)
	.dwattr $C$DW$254, DW_AT_decl_column(0x07)
	.dwattr $C$DW$254, DW_AT_TI_max_frame_size(0x08)
	.dwpsn	file "../Tivaware_Dep/third_party/FreeRTOS/Source/tasks.c",line 2310,column 1,is_stmt,address pcTaskGetName,isa 1

	.dwfde $C$DW$CIE, pcTaskGetName
$C$DW$255	.dwtag  DW_TAG_formal_parameter
	.dwattr $C$DW$255, DW_AT_name("xTaskToQuery")
	.dwattr $C$DW$255, DW_AT_TI_symbol_name("xTaskToQuery")
	.dwattr $C$DW$255, DW_AT_type(*$C$DW$T$89)
	.dwattr $C$DW$255, DW_AT_location[DW_OP_reg0]


;*****************************************************************************
;* FUNCTION NAME: pcTaskGetName                                              *
;*                                                                           *
;*   Regs Modified     : A1,SP,SR                                            *
;*   Regs Used         : A1,SP,LR,SR                                         *
;*   Local Frame Size  : 0 Args + 8 Auto + 0 Save = 8 byte                   *
;*****************************************************************************
pcTaskGetName:
;* --------------------------------------------------------------------------*
	.dwcfi	cfa_offset, 0
        SUB       SP, SP, #8            ; [DPU_V7M3_PIPE] 
	.dwcfi	cfa_offset, 8
$C$DW$256	.dwtag  DW_TAG_variable
	.dwattr $C$DW$256, DW_AT_name("xTaskToQuery")
	.dwattr $C$DW$256, DW_AT_TI_symbol_name("xTaskToQuery")
	.dwattr $C$DW$256, DW_AT_type(*$C$DW$T$89)
	.dwattr $C$DW$256, DW_AT_location[DW_OP_breg13 0]

$C$DW$257	.dwtag  DW_TAG_variable
	.dwattr $C$DW$257, DW_AT_name("pxTCB")
	.dwattr $C$DW$257, DW_AT_TI_symbol_name("pxTCB")
	.dwattr $C$DW$257, DW_AT_type(*$C$DW$T$132)
	.dwattr $C$DW$257, DW_AT_location[DW_OP_breg13 4]

        STR       A1, [SP, #0]          ; [DPU_V7M3_PIPE] |2310| 
	.dwpsn	file "../Tivaware_Dep/third_party/FreeRTOS/Source/tasks.c",line 2315,column 2,is_stmt,isa 1
        LDR       A1, [SP, #0]          ; [DPU_V7M3_PIPE] |2315| 
        CBNZ      A1, ||$C$L86||        ; [] 
        ; BRANCHCC OCCURS {||$C$L86||}   ; [] |2315| 
;* --------------------------------------------------------------------------*
        LDR       A1, $C$CON69          ; [DPU_V7M3_PIPE] |2315| 
        LDR       A1, [A1, #0]          ; [DPU_V7M3_PIPE] |2315| 
        B         ||$C$L87||            ; [DPU_V7M3_PIPE] |2315| 
        ; BRANCH OCCURS {||$C$L87||}     ; [] |2315| 
;* --------------------------------------------------------------------------*
||$C$L86||:    
        LDR       A1, [SP, #0]          ; [DPU_V7M3_PIPE] |2315| 
;* --------------------------------------------------------------------------*
||$C$L87||:    
        STR       A1, [SP, #4]          ; [DPU_V7M3_PIPE] |2315| 
	.dwpsn	file "../Tivaware_Dep/third_party/FreeRTOS/Source/tasks.c",line 2317,column 2,is_stmt,isa 1
        LDR       A1, [SP, #4]          ; [DPU_V7M3_PIPE] |2317| 
        ADDS      A1, A1, #52           ; [DPU_V7M3_PIPE] |2317| 
	.dwpsn	file "../Tivaware_Dep/third_party/FreeRTOS/Source/tasks.c",line 2318,column 1,is_stmt,isa 1
        ADD       SP, SP, #8            ; [DPU_V7M3_PIPE] 
	.dwcfi	cfa_offset, 0
$C$DW$258	.dwtag  DW_TAG_TI_branch
	.dwattr $C$DW$258, DW_AT_low_pc(0x00)
	.dwattr $C$DW$258, DW_AT_TI_return

        BX        LR                    ; [DPU_V7M3_PIPE] 
        ; BRANCH OCCURS                  ; [] 
	.dwattr $C$DW$254, DW_AT_TI_end_file("../Tivaware_Dep/third_party/FreeRTOS/Source/tasks.c")
	.dwattr $C$DW$254, DW_AT_TI_end_line(0x90e)
	.dwattr $C$DW$254, DW_AT_TI_end_column(0x01)
	.dwendentry
	.dwendtag $C$DW$254

	.sect	".text:uxTaskGetSystemState"
	.clink
	.thumbfunc uxTaskGetSystemState
	.thumb
	.global	uxTaskGetSystemState

$C$DW$259	.dwtag  DW_TAG_subprogram
	.dwattr $C$DW$259, DW_AT_name("uxTaskGetSystemState")
	.dwattr $C$DW$259, DW_AT_low_pc(uxTaskGetSystemState)
	.dwattr $C$DW$259, DW_AT_high_pc(0x00)
	.dwattr $C$DW$259, DW_AT_TI_symbol_name("uxTaskGetSystemState")
	.dwattr $C$DW$259, DW_AT_external
	.dwattr $C$DW$259, DW_AT_type(*$C$DW$T$26)
	.dwattr $C$DW$259, DW_AT_TI_begin_file("../Tivaware_Dep/third_party/FreeRTOS/Source/tasks.c")
	.dwattr $C$DW$259, DW_AT_TI_begin_line(0x998)
	.dwattr $C$DW$259, DW_AT_TI_begin_column(0x0e)
	.dwattr $C$DW$259, DW_AT_decl_file("../Tivaware_Dep/third_party/FreeRTOS/Source/tasks.c")
	.dwattr $C$DW$259, DW_AT_decl_line(0x998)
	.dwattr $C$DW$259, DW_AT_decl_column(0x0e)
	.dwattr $C$DW$259, DW_AT_TI_max_frame_size(0x20)
	.dwpsn	file "../Tivaware_Dep/third_party/FreeRTOS/Source/tasks.c",line 2457,column 2,is_stmt,address uxTaskGetSystemState,isa 1

	.dwfde $C$DW$CIE, uxTaskGetSystemState
$C$DW$260	.dwtag  DW_TAG_formal_parameter
	.dwattr $C$DW$260, DW_AT_name("pxTaskStatusArray")
	.dwattr $C$DW$260, DW_AT_TI_symbol_name("pxTaskStatusArray")
	.dwattr $C$DW$260, DW_AT_type(*$C$DW$T$296)
	.dwattr $C$DW$260, DW_AT_location[DW_OP_reg0]

$C$DW$261	.dwtag  DW_TAG_formal_parameter
	.dwattr $C$DW$261, DW_AT_name("uxArraySize")
	.dwattr $C$DW$261, DW_AT_TI_symbol_name("uxArraySize")
	.dwattr $C$DW$261, DW_AT_type(*$C$DW$T$155)
	.dwattr $C$DW$261, DW_AT_location[DW_OP_reg1]

$C$DW$262	.dwtag  DW_TAG_formal_parameter
	.dwattr $C$DW$262, DW_AT_name("pulTotalRunTime")
	.dwattr $C$DW$262, DW_AT_TI_symbol_name("pulTotalRunTime")
	.dwattr $C$DW$262, DW_AT_type(*$C$DW$T$263)
	.dwattr $C$DW$262, DW_AT_location[DW_OP_reg2]


;*****************************************************************************
;* FUNCTION NAME: uxTaskGetSystemState                                       *
;*                                                                           *
;*   Regs Modified     : A1,A2,A3,A4,V1,V2,V9,SP,LR,SR,D0,D0_hi,D1,D1_hi,D2, *
;*                           D2_hi,D3,D3_hi,D4,D4_hi,D5,D5_hi,D6,D6_hi,D7,   *
;*                           D7_hi,FPEXC,FPSCR                               *
;*   Regs Used         : A1,A2,A3,A4,V1,V2,V9,SP,LR,SR,D0,D0_hi,D1,D1_hi,D2, *
;*                           D2_hi,D3,D3_hi,D4,D4_hi,D5,D5_hi,D6,D6_hi,D7,   *
;*                           D7_hi,FPEXC,FPSCR                               *
;*   Local Frame Size  : 0 Args + 20 Auto + 12 Save = 32 byte                *
;*****************************************************************************
uxTaskGetSystemState:
;* --------------------------------------------------------------------------*
	.dwcfi	cfa_offset, 0
        PUSH      {V1, V2, LR}          ; [DPU_V7M3_PIPE] 
	.dwcfi	cfa_offset, 12
	.dwcfi	save_reg_to_mem, 14, -4
	.dwcfi	save_reg_to_mem, 5, -8
	.dwcfi	save_reg_to_mem, 4, -12
        SUB       SP, SP, #20           ; [DPU_V7M3_PIPE] 
	.dwcfi	cfa_offset, 32
$C$DW$263	.dwtag  DW_TAG_variable
	.dwattr $C$DW$263, DW_AT_name("pxTaskStatusArray")
	.dwattr $C$DW$263, DW_AT_TI_symbol_name("pxTaskStatusArray")
	.dwattr $C$DW$263, DW_AT_type(*$C$DW$T$296)
	.dwattr $C$DW$263, DW_AT_location[DW_OP_breg13 0]

$C$DW$264	.dwtag  DW_TAG_variable
	.dwattr $C$DW$264, DW_AT_name("uxArraySize")
	.dwattr $C$DW$264, DW_AT_TI_symbol_name("uxArraySize")
	.dwattr $C$DW$264, DW_AT_type(*$C$DW$T$155)
	.dwattr $C$DW$264, DW_AT_location[DW_OP_breg13 4]

$C$DW$265	.dwtag  DW_TAG_variable
	.dwattr $C$DW$265, DW_AT_name("pulTotalRunTime")
	.dwattr $C$DW$265, DW_AT_TI_symbol_name("pulTotalRunTime")
	.dwattr $C$DW$265, DW_AT_type(*$C$DW$T$263)
	.dwattr $C$DW$265, DW_AT_location[DW_OP_breg13 8]

$C$DW$266	.dwtag  DW_TAG_variable
	.dwattr $C$DW$266, DW_AT_name("uxTask")
	.dwattr $C$DW$266, DW_AT_TI_symbol_name("uxTask")
	.dwattr $C$DW$266, DW_AT_type(*$C$DW$T$26)
	.dwattr $C$DW$266, DW_AT_location[DW_OP_breg13 12]

$C$DW$267	.dwtag  DW_TAG_variable
	.dwattr $C$DW$267, DW_AT_name("uxQueue")
	.dwattr $C$DW$267, DW_AT_TI_symbol_name("uxQueue")
	.dwattr $C$DW$267, DW_AT_type(*$C$DW$T$26)
	.dwattr $C$DW$267, DW_AT_location[DW_OP_breg13 16]

        STR       A3, [SP, #8]          ; [DPU_V7M3_PIPE] |2457| 
        STR       A2, [SP, #4]          ; [DPU_V7M3_PIPE] |2457| 
        STR       A1, [SP, #0]          ; [DPU_V7M3_PIPE] |2457| 
	.dwpsn	file "../Tivaware_Dep/third_party/FreeRTOS/Source/tasks.c",line 2458,column 21,is_stmt,isa 1
        MOVS      A1, #0                ; [DPU_V7M3_PIPE] |2458| 
        STR       A1, [SP, #12]         ; [DPU_V7M3_PIPE] |2458| 
	.dwpsn	file "../Tivaware_Dep/third_party/FreeRTOS/Source/tasks.c",line 2458,column 34,is_stmt,isa 1
        MOVS      A1, #16               ; [DPU_V7M3_PIPE] |2458| 
        STR       A1, [SP, #16]         ; [DPU_V7M3_PIPE] |2458| 
	.dwpsn	file "../Tivaware_Dep/third_party/FreeRTOS/Source/tasks.c",line 2460,column 3,is_stmt,isa 1
$C$DW$268	.dwtag  DW_TAG_TI_branch
	.dwattr $C$DW$268, DW_AT_low_pc(0x00)
	.dwattr $C$DW$268, DW_AT_name("vTaskSuspendAll")
	.dwattr $C$DW$268, DW_AT_TI_call

        BL        vTaskSuspendAll       ; [DPU_V7M3_PIPE] |2460| 
        ; CALL OCCURS {vTaskSuspendAll }  ; [] |2460| 
	.dwpsn	file "../Tivaware_Dep/third_party/FreeRTOS/Source/tasks.c",line 2463,column 4,is_stmt,isa 1
        LDR       A1, $C$CON70          ; [DPU_V7M3_PIPE] |2463| 
        LDR       A2, [SP, #4]          ; [DPU_V7M3_PIPE] |2463| 
        LDR       A1, [A1, #0]          ; [DPU_V7M3_PIPE] |2463| 
        CMP       A1, A2                ; [DPU_V7M3_PIPE] |2463| 
        BHI       ||$C$L89||            ; [DPU_V7M3_PIPE] |2463| 
        ; BRANCHCC OCCURS {||$C$L89||}   ; [] |2463| 
;* --------------------------------------------------------------------------*
;*   BEGIN LOOP ||$C$L88||
;*
;*   Loop source line                : 2467
;*   Loop closing brace source line  : 2472
;*   Known Minimum Trip Count        : 1
;*   Known Maximum Trip Count        : 4294967295
;*   Known Max Trip Count Factor     : 1
;* --------------------------------------------------------------------------*
||$C$L88||:    
	.dwpsn	file "../Tivaware_Dep/third_party/FreeRTOS/Source/tasks.c",line 2469,column 6,is_stmt,isa 1
        LDR       A1, [SP, #16]         ; [DPU_V7M3_PIPE] |2469| 
        SUBS      A1, A1, #1            ; [DPU_V7M3_PIPE] |2469| 
        STR       A1, [SP, #16]         ; [DPU_V7M3_PIPE] |2469| 
	.dwpsn	file "../Tivaware_Dep/third_party/FreeRTOS/Source/tasks.c",line 2470,column 6,is_stmt,isa 1
        LDR       V2, [SP, #12]         ; [DPU_V7M3_PIPE] |2470| 
        LDR       V1, [SP, #16]         ; [DPU_V7M3_PIPE] |2470| 
        LDR       A4, $C$CON71          ; [DPU_V7M3_PIPE] |2470| 
        LDR       A1, [SP, #0]          ; [DPU_V7M3_PIPE] |2470| 
        LSLS      A3, V2, #2            ; [DPU_V7M3_PIPE] |2470| 
        LSLS      A2, V1, #2            ; [DPU_V7M3_PIPE] |2470| 
        ADD       A3, A3, V2, LSL #5    ; [DPU_V7M3_PIPE] |2470| 
        ADD       A2, A2, V1, LSL #4    ; [DPU_V7M3_PIPE] |2470| 
        ADDS      A1, A1, A3            ; [DPU_V7M3_PIPE] |2470| 
        ADDS      A2, A2, A4            ; [DPU_V7M3_PIPE] |2470| 
        MOVS      A3, #1                ; [DPU_V7M3_PIPE] |2470| 
$C$DW$269	.dwtag  DW_TAG_TI_branch
	.dwattr $C$DW$269, DW_AT_low_pc(0x00)
	.dwattr $C$DW$269, DW_AT_name("prvListTasksWithinSingleList")
	.dwattr $C$DW$269, DW_AT_TI_call

        BL        prvListTasksWithinSingleList ; [DPU_V7M3_PIPE] |2470| 
        ; CALL OCCURS {prvListTasksWithinSingleList }  ; [] |2470| 
        LDR       A2, [SP, #12]         ; [DPU_V7M3_PIPE] |2470| 
        ADDS      A1, A2, A1            ; [DPU_V7M3_PIPE] |2470| 
        STR       A1, [SP, #12]         ; [DPU_V7M3_PIPE] |2470| 
	.dwpsn	file "../Tivaware_Dep/third_party/FreeRTOS/Source/tasks.c",line 2472,column 14,is_stmt,isa 1
        LDR       A1, [SP, #16]         ; [DPU_V7M3_PIPE] |2472| 
        CMP       A1, #0                ; [DPU_V7M3_PIPE] |2472| 
        BNE       ||$C$L88||            ; [DPU_V7M3_PIPE] |2472| 
        ; BRANCHCC OCCURS {||$C$L88||}   ; [] |2472| 
;* --------------------------------------------------------------------------*
	.dwpsn	file "../Tivaware_Dep/third_party/FreeRTOS/Source/tasks.c",line 2476,column 5,is_stmt,isa 1
        LDR       A4, [SP, #12]         ; [DPU_V7M3_PIPE] |2476| 
        LDR       A1, [SP, #0]          ; [DPU_V7M3_PIPE] |2476| 
        LDR       A3, $C$CON72          ; [DPU_V7M3_PIPE] |2476| 
        LSLS      A2, A4, #2            ; [DPU_V7M3_PIPE] |2476| 
        ADD       A2, A2, A4, LSL #5    ; [DPU_V7M3_PIPE] |2476| 
        ADDS      A1, A1, A2            ; [DPU_V7M3_PIPE] |2476| 
        LDR       A2, [A3, #0]          ; [DPU_V7M3_PIPE] |2476| 
        MOVS      A3, #2                ; [DPU_V7M3_PIPE] |2476| 
$C$DW$270	.dwtag  DW_TAG_TI_branch
	.dwattr $C$DW$270, DW_AT_low_pc(0x00)
	.dwattr $C$DW$270, DW_AT_name("prvListTasksWithinSingleList")
	.dwattr $C$DW$270, DW_AT_TI_call

        BL        prvListTasksWithinSingleList ; [DPU_V7M3_PIPE] |2476| 
        ; CALL OCCURS {prvListTasksWithinSingleList }  ; [] |2476| 
        LDR       A2, [SP, #12]         ; [DPU_V7M3_PIPE] |2476| 
        ADDS      A1, A2, A1            ; [DPU_V7M3_PIPE] |2476| 
        STR       A1, [SP, #12]         ; [DPU_V7M3_PIPE] |2476| 
	.dwpsn	file "../Tivaware_Dep/third_party/FreeRTOS/Source/tasks.c",line 2477,column 5,is_stmt,isa 1
        LDR       A4, [SP, #12]         ; [DPU_V7M3_PIPE] |2477| 
        LDR       A1, [SP, #0]          ; [DPU_V7M3_PIPE] |2477| 
        LDR       A3, $C$CON73          ; [DPU_V7M3_PIPE] |2477| 
        LSLS      A2, A4, #2            ; [DPU_V7M3_PIPE] |2477| 
        ADD       A2, A2, A4, LSL #5    ; [DPU_V7M3_PIPE] |2477| 
        ADDS      A1, A1, A2            ; [DPU_V7M3_PIPE] |2477| 
        LDR       A2, [A3, #0]          ; [DPU_V7M3_PIPE] |2477| 
        MOVS      A3, #2                ; [DPU_V7M3_PIPE] |2477| 
$C$DW$271	.dwtag  DW_TAG_TI_branch
	.dwattr $C$DW$271, DW_AT_low_pc(0x00)
	.dwattr $C$DW$271, DW_AT_name("prvListTasksWithinSingleList")
	.dwattr $C$DW$271, DW_AT_TI_call

        BL        prvListTasksWithinSingleList ; [DPU_V7M3_PIPE] |2477| 
        ; CALL OCCURS {prvListTasksWithinSingleList }  ; [] |2477| 
        LDR       A2, [SP, #12]         ; [DPU_V7M3_PIPE] |2477| 
        ADDS      A1, A2, A1            ; [DPU_V7M3_PIPE] |2477| 
        STR       A1, [SP, #12]         ; [DPU_V7M3_PIPE] |2477| 
	.dwpsn	file "../Tivaware_Dep/third_party/FreeRTOS/Source/tasks.c",line 2483,column 6,is_stmt,isa 1
        LDR       A3, [SP, #12]         ; [DPU_V7M3_PIPE] |2483| 
        LDR       A1, [SP, #0]          ; [DPU_V7M3_PIPE] |2483| 
        LSLS      A2, A3, #2            ; [DPU_V7M3_PIPE] |2483| 
        ADD       A2, A2, A3, LSL #5    ; [DPU_V7M3_PIPE] |2483| 
        ADDS      A1, A1, A2            ; [DPU_V7M3_PIPE] |2483| 
        LDR       A2, $C$CON74          ; [DPU_V7M3_PIPE] |2483| 
        MOVS      A3, #4                ; [DPU_V7M3_PIPE] |2483| 
$C$DW$272	.dwtag  DW_TAG_TI_branch
	.dwattr $C$DW$272, DW_AT_low_pc(0x00)
	.dwattr $C$DW$272, DW_AT_name("prvListTasksWithinSingleList")
	.dwattr $C$DW$272, DW_AT_TI_call

        BL        prvListTasksWithinSingleList ; [DPU_V7M3_PIPE] |2483| 
        ; CALL OCCURS {prvListTasksWithinSingleList }  ; [] |2483| 
        LDR       A2, [SP, #12]         ; [DPU_V7M3_PIPE] |2483| 
        ADDS      A1, A2, A1            ; [DPU_V7M3_PIPE] |2483| 
        STR       A1, [SP, #12]         ; [DPU_V7M3_PIPE] |2483| 
	.dwpsn	file "../Tivaware_Dep/third_party/FreeRTOS/Source/tasks.c",line 2491,column 6,is_stmt,isa 1
        LDR       A3, [SP, #12]         ; [DPU_V7M3_PIPE] |2491| 
        LDR       A1, [SP, #0]          ; [DPU_V7M3_PIPE] |2491| 
        LSLS      A2, A3, #2            ; [DPU_V7M3_PIPE] |2491| 
        ADD       A2, A2, A3, LSL #5    ; [DPU_V7M3_PIPE] |2491| 
        ADDS      A1, A1, A2            ; [DPU_V7M3_PIPE] |2491| 
        LDR       A2, $C$CON75          ; [DPU_V7M3_PIPE] |2491| 
        MOVS      A3, #3                ; [DPU_V7M3_PIPE] |2491| 
$C$DW$273	.dwtag  DW_TAG_TI_branch
	.dwattr $C$DW$273, DW_AT_low_pc(0x00)
	.dwattr $C$DW$273, DW_AT_name("prvListTasksWithinSingleList")
	.dwattr $C$DW$273, DW_AT_TI_call

        BL        prvListTasksWithinSingleList ; [DPU_V7M3_PIPE] |2491| 
        ; CALL OCCURS {prvListTasksWithinSingleList }  ; [] |2491| 
        LDR       A2, [SP, #12]         ; [DPU_V7M3_PIPE] |2491| 
        ADDS      A1, A2, A1            ; [DPU_V7M3_PIPE] |2491| 
        STR       A1, [SP, #12]         ; [DPU_V7M3_PIPE] |2491| 
	.dwpsn	file "../Tivaware_Dep/third_party/FreeRTOS/Source/tasks.c",line 2508,column 6,is_stmt,isa 1
        LDR       A1, [SP, #8]          ; [DPU_V7M3_PIPE] |2508| 
        CBZ       A1, ||$C$L89||        ; [] 
        ; BRANCHCC OCCURS {||$C$L89||}   ; [] |2508| 
;* --------------------------------------------------------------------------*
	.dwpsn	file "../Tivaware_Dep/third_party/FreeRTOS/Source/tasks.c",line 2510,column 7,is_stmt,isa 1
        LDR       A1, [SP, #8]          ; [DPU_V7M3_PIPE] |2510| 
        MOVS      A2, #0                ; [DPU_V7M3_PIPE] |2510| 
        STR       A2, [A1, #0]          ; [DPU_V7M3_PIPE] |2510| 
	.dwpsn	file "../Tivaware_Dep/third_party/FreeRTOS/Source/tasks.c",line 2514,column 4,is_stmt,isa 1
;* --------------------------------------------------------------------------*
||$C$L89||:    
	.dwpsn	file "../Tivaware_Dep/third_party/FreeRTOS/Source/tasks.c",line 2520,column 3,is_stmt,isa 1
$C$DW$274	.dwtag  DW_TAG_TI_branch
	.dwattr $C$DW$274, DW_AT_low_pc(0x00)
	.dwattr $C$DW$274, DW_AT_name("xTaskResumeAll")
	.dwattr $C$DW$274, DW_AT_TI_call

        BL        xTaskResumeAll        ; [DPU_V7M3_PIPE] |2520| 
        ; CALL OCCURS {xTaskResumeAll }  ; [] |2520| 
	.dwpsn	file "../Tivaware_Dep/third_party/FreeRTOS/Source/tasks.c",line 2522,column 3,is_stmt,isa 1
        LDR       A1, [SP, #12]         ; [DPU_V7M3_PIPE] |2522| 
	.dwpsn	file "../Tivaware_Dep/third_party/FreeRTOS/Source/tasks.c",line 2523,column 2,is_stmt,isa 1
        ADD       SP, SP, #20           ; [DPU_V7M3_PIPE] 
	.dwcfi	cfa_offset, 12
$C$DW$275	.dwtag  DW_TAG_TI_branch
	.dwattr $C$DW$275, DW_AT_low_pc(0x00)
	.dwattr $C$DW$275, DW_AT_TI_return

        POP       {V1, V2, PC}          ; [DPU_V7M3_PIPE] 
	.dwcfi	cfa_offset, 0
	.dwcfi	restore_reg, 5
	.dwcfi	restore_reg, 4
        ; BRANCH OCCURS                  ; [] 
	.dwattr $C$DW$259, DW_AT_TI_end_file("../Tivaware_Dep/third_party/FreeRTOS/Source/tasks.c")
	.dwattr $C$DW$259, DW_AT_TI_end_line(0x9db)
	.dwattr $C$DW$259, DW_AT_TI_end_column(0x02)
	.dwendentry
	.dwendtag $C$DW$259

	.sect	".text:xTaskIncrementTick"
	.clink
	.thumbfunc xTaskIncrementTick
	.thumb
	.global	xTaskIncrementTick

$C$DW$276	.dwtag  DW_TAG_subprogram
	.dwattr $C$DW$276, DW_AT_name("xTaskIncrementTick")
	.dwattr $C$DW$276, DW_AT_low_pc(xTaskIncrementTick)
	.dwattr $C$DW$276, DW_AT_high_pc(0x00)
	.dwattr $C$DW$276, DW_AT_TI_symbol_name("xTaskIncrementTick")
	.dwattr $C$DW$276, DW_AT_external
	.dwattr $C$DW$276, DW_AT_type(*$C$DW$T$93)
	.dwattr $C$DW$276, DW_AT_TI_begin_file("../Tivaware_Dep/third_party/FreeRTOS/Source/tasks.c")
	.dwattr $C$DW$276, DW_AT_TI_begin_line(0xa4c)
	.dwattr $C$DW$276, DW_AT_TI_begin_column(0x0c)
	.dwattr $C$DW$276, DW_AT_decl_file("../Tivaware_Dep/third_party/FreeRTOS/Source/tasks.c")
	.dwattr $C$DW$276, DW_AT_decl_line(0xa4c)
	.dwattr $C$DW$276, DW_AT_decl_column(0x0c)
	.dwattr $C$DW$276, DW_AT_TI_max_frame_size(0x20)
	.dwpsn	file "../Tivaware_Dep/third_party/FreeRTOS/Source/tasks.c",line 2637,column 1,is_stmt,address xTaskIncrementTick,isa 1

	.dwfde $C$DW$CIE, xTaskIncrementTick

;*****************************************************************************
;* FUNCTION NAME: xTaskIncrementTick                                         *
;*                                                                           *
;*   Regs Modified     : A1,A2,A3,A4,V1,V9,SP,LR,SR,D0,D0_hi,D1,D1_hi,D2,    *
;*                           D2_hi,D3,D3_hi,D4,D4_hi,D5,D5_hi,D6,D6_hi,D7,   *
;*                           D7_hi,FPEXC,FPSCR                               *
;*   Regs Used         : A1,A2,A3,A4,V1,V9,SP,LR,SR,D0,D0_hi,D1,D1_hi,D2,    *
;*                           D2_hi,D3,D3_hi,D4,D4_hi,D5,D5_hi,D6,D6_hi,D7,   *
;*                           D7_hi,FPEXC,FPSCR                               *
;*   Local Frame Size  : 0 Args + 20 Auto + 8 Save = 28 byte                 *
;*****************************************************************************
xTaskIncrementTick:
;* --------------------------------------------------------------------------*
	.dwcfi	cfa_offset, 0
        PUSH      {V1, LR}              ; [DPU_V7M3_PIPE] 
	.dwcfi	cfa_offset, 8
	.dwcfi	save_reg_to_mem, 14, -4
	.dwcfi	save_reg_to_mem, 4, -8
        SUB       SP, SP, #24           ; [DPU_V7M3_PIPE] 
	.dwcfi	cfa_offset, 32
$C$DW$277	.dwtag  DW_TAG_variable
	.dwattr $C$DW$277, DW_AT_name("pxTCB")
	.dwattr $C$DW$277, DW_AT_TI_symbol_name("pxTCB")
	.dwattr $C$DW$277, DW_AT_type(*$C$DW$T$132)
	.dwattr $C$DW$277, DW_AT_location[DW_OP_breg13 0]

$C$DW$278	.dwtag  DW_TAG_variable
	.dwattr $C$DW$278, DW_AT_name("xItemValue")
	.dwattr $C$DW$278, DW_AT_TI_symbol_name("xItemValue")
	.dwattr $C$DW$278, DW_AT_type(*$C$DW$T$50)
	.dwattr $C$DW$278, DW_AT_location[DW_OP_breg13 4]

$C$DW$279	.dwtag  DW_TAG_variable
	.dwattr $C$DW$279, DW_AT_name("xSwitchRequired")
	.dwattr $C$DW$279, DW_AT_TI_symbol_name("xSwitchRequired")
	.dwattr $C$DW$279, DW_AT_type(*$C$DW$T$93)
	.dwattr $C$DW$279, DW_AT_location[DW_OP_breg13 8]

	.dwpsn	file "../Tivaware_Dep/third_party/FreeRTOS/Source/tasks.c",line 2640,column 28,is_stmt,isa 1
        MOVS      A1, #0                ; [DPU_V7M3_PIPE] |2640| 
        STR       A1, [SP, #8]          ; [DPU_V7M3_PIPE] |2640| 

$C$DW$280	.dwtag  DW_TAG_lexical_block
	.dwattr $C$DW$280, DW_AT_low_pc(0x00)
	.dwattr $C$DW$280, DW_AT_high_pc(0x00)
	.dwpsn	file "../Tivaware_Dep/third_party/FreeRTOS/Source/tasks.c",line 2646,column 2,is_stmt,isa 1
        LDR       A1, $C$CON76          ; [DPU_V7M3_PIPE] |2646| 
        LDR       A1, [A1, #0]          ; [DPU_V7M3_PIPE] |2646| 
        CMP       A1, #0                ; [DPU_V7M3_PIPE] |2646| 
        BNE       ||$C$L97||            ; [DPU_V7M3_PIPE] |2646| 
        ; BRANCHCC OCCURS {||$C$L97||}   ; [] |2646| 
;* --------------------------------------------------------------------------*

$C$DW$281	.dwtag  DW_TAG_lexical_block
	.dwattr $C$DW$281, DW_AT_low_pc(0x00)
	.dwattr $C$DW$281, DW_AT_high_pc(0x00)
$C$DW$282	.dwtag  DW_TAG_variable
	.dwattr $C$DW$282, DW_AT_name("xConstTickCount")
	.dwattr $C$DW$282, DW_AT_TI_symbol_name("xConstTickCount")
	.dwattr $C$DW$282, DW_AT_type(*$C$DW$T$143)
	.dwattr $C$DW$282, DW_AT_location[DW_OP_breg13 12]

	.dwpsn	file "../Tivaware_Dep/third_party/FreeRTOS/Source/tasks.c",line 2650,column 36,is_stmt,isa 1
        LDR       A1, $C$CON77          ; [DPU_V7M3_PIPE] |2650| 
        LDR       A1, [A1, #0]          ; [DPU_V7M3_PIPE] |2650| 
        ADDS      A1, A1, #1            ; [DPU_V7M3_PIPE] |2650| 
        STR       A1, [SP, #12]         ; [DPU_V7M3_PIPE] |2650| 
	.dwpsn	file "../Tivaware_Dep/third_party/FreeRTOS/Source/tasks.c",line 2654,column 3,is_stmt,isa 1
        LDR       A2, $C$CON77          ; [DPU_V7M3_PIPE] |2654| 
        LDR       A1, [SP, #12]         ; [DPU_V7M3_PIPE] |2654| 
        STR       A1, [A2, #0]          ; [DPU_V7M3_PIPE] |2654| 

$C$DW$283	.dwtag  DW_TAG_lexical_block
	.dwattr $C$DW$283, DW_AT_low_pc(0x00)
	.dwattr $C$DW$283, DW_AT_high_pc(0x00)
	.dwpsn	file "../Tivaware_Dep/third_party/FreeRTOS/Source/tasks.c",line 2656,column 3,is_stmt,isa 1
        LDR       A1, [SP, #12]         ; [DPU_V7M3_PIPE] |2656| 
        CBNZ      A1, ||$C$L90||        ; [] 
        ; BRANCHCC OCCURS {||$C$L90||}   ; [] |2656| 
;* --------------------------------------------------------------------------*

$C$DW$284	.dwtag  DW_TAG_lexical_block
	.dwattr $C$DW$284, DW_AT_low_pc(0x00)
	.dwattr $C$DW$284, DW_AT_high_pc(0x00)

$C$DW$285	.dwtag  DW_TAG_lexical_block
	.dwattr $C$DW$285, DW_AT_low_pc(0x00)
	.dwattr $C$DW$285, DW_AT_high_pc(0x00)
$C$DW$286	.dwtag  DW_TAG_variable
	.dwattr $C$DW$286, DW_AT_name("pxTemp")
	.dwattr $C$DW$286, DW_AT_TI_symbol_name("pxTemp")
	.dwattr $C$DW$286, DW_AT_type(*$C$DW$T$115)
	.dwattr $C$DW$286, DW_AT_location[DW_OP_breg13 16]

	.dwpsn	file "../Tivaware_Dep/third_party/FreeRTOS/Source/tasks.c",line 2658,column 4,is_stmt,isa 1
        LDR       A1, $C$CON78          ; [DPU_V7M3_PIPE] |2658| 
        LDR       A2, $C$CON79          ; [DPU_V7M3_PIPE] |2658| 
        LDR       A4, $C$CON78          ; [DPU_V7M3_PIPE] |2658| 
        LDR       A1, [A1, #0]          ; [DPU_V7M3_PIPE] |2658| 
        LDR       A3, $C$CON79          ; [DPU_V7M3_PIPE] |2658| 
        STR       A1, [SP, #16]         ; [DPU_V7M3_PIPE] |2658| 
        LDR       A2, [A2, #0]          ; [DPU_V7M3_PIPE] |2658| 
        LDR       A1, [SP, #16]         ; [DPU_V7M3_PIPE] |2658| 
        STR       A2, [A4, #0]          ; [DPU_V7M3_PIPE] |2658| 
        LDR       A2, $C$CON80          ; [DPU_V7M3_PIPE] |2658| 
        STR       A1, [A3, #0]          ; [DPU_V7M3_PIPE] |2658| 
        LDR       A1, [A2, #0]          ; [DPU_V7M3_PIPE] |2658| 
        ADDS      A1, A1, #1            ; [DPU_V7M3_PIPE] |2658| 
        STR       A1, [A2, #0]          ; [DPU_V7M3_PIPE] |2658| 
$C$DW$287	.dwtag  DW_TAG_TI_branch
	.dwattr $C$DW$287, DW_AT_low_pc(0x00)
	.dwattr $C$DW$287, DW_AT_name("prvResetNextTaskUnblockTime")
	.dwattr $C$DW$287, DW_AT_TI_call

        BL        prvResetNextTaskUnblockTime ; [DPU_V7M3_PIPE] |2658| 
        ; CALL OCCURS {prvResetNextTaskUnblockTime }  ; [] |2658| 
	.dwendtag $C$DW$285

	.dwendtag $C$DW$284

